Archive member included to satisfy reference by file (symbol)

arch/arm/lib/lib.a(lib1funcs.o)
                              arch/arm/mach-at91/built-in.o (__aeabi_uidiv)
arch/arm/lib/lib.a(div0.o)    arch/arm/lib/lib.a(lib1funcs.o) (__div0)

Discarded input sections

 .data          0x0000000000000000        0x0 arch/arm/cpu/armv7/start.o
 .bss           0x0000000000000000        0x0 arch/arm/cpu/armv7/start.o
 .text.mmu_page_table_flush
                0x0000000000000000       0x24 arch/arm/cpu/armv7/built-in.o
 .text.v7_arch_cp15_set_l2aux_ctrl
                0x0000000000000000        0x8 arch/arm/cpu/armv7/built-in.o
 .text.v7_arch_cp15_set_acr
                0x0000000000000000        0x8 arch/arm/cpu/armv7/built-in.o
 .text.sdelay   0x0000000000000000        0xc arch/arm/cpu/armv7/built-in.o
 .text.wait_on_value
                0x0000000000000000       0x38 arch/arm/cpu/armv7/built-in.o
 .data          0x0000000000000000        0x0 arch/arm/cpu/armv7/built-in.o
 .bss           0x0000000000000000        0x0 arch/arm/cpu/armv7/built-in.o
 .text.setup_board_tags
                0x0000000000000000        0x4 arch/arm/lib/built-in.o
 .text.armv7_boot_nonsec_default
                0x0000000000000000        0x8 arch/arm/lib/built-in.o
 .text.enable_caches
                0x0000000000000000        0xc arch/arm/lib/built-in.o
 .text.invalidate_dcache_range
                0x0000000000000000        0x4 arch/arm/lib/built-in.o
 .text.flush_dcache_range
                0x0000000000000000        0x4 arch/arm/lib/built-in.o
 .text.flush_dcache_all
                0x0000000000000000        0xc arch/arm/lib/built-in.o
 .text.arm_init_before_mmu
                0x0000000000000000        0x4 arch/arm/lib/built-in.o
 .text.mmu_page_table_flush
                0x0000000000000000        0x4 arch/arm/lib/built-in.o
 .text.mmu_set_region_dcache_behaviour
                0x0000000000000000       0x58 arch/arm/lib/built-in.o
 .text.icache_status
                0x0000000000000000        0xc arch/arm/lib/built-in.o
 .text.fdt_psci
                0x0000000000000000        0x8 arch/arm/lib/built-in.o
 .rodata.enable_caches.str1.1
                0x0000000000000000       0x1d arch/arm/lib/built-in.o
 .data          0x0000000000000000        0x0 arch/arm/lib/built-in.o
 .__secure_end  0x0000000000000000        0x0 arch/arm/lib/built-in.o
 .__secure_stack_end
                0x0000000000000000        0x0 arch/arm/lib/built-in.o
 .__secure_stack_start
                0x0000000000000000        0x0 arch/arm/lib/built-in.o
 .__secure_start
                0x0000000000000000        0x0 arch/arm/lib/built-in.o
 .bss           0x0000000000000000        0x0 arch/arm/lib/built-in.o
 .text          0x0000000000000000        0x0 arch/arm/mach-at91/built-in.o
 .text.at91_periph_clk_disable
                0x0000000000000000       0x20 arch/arm/mach-at91/built-in.o
 .text.at91_system_clk_enable
                0x0000000000000000       0x14 arch/arm/mach-at91/built-in.o
 .text.at91_system_clk_disable
                0x0000000000000000       0x14 arch/arm/mach-at91/built-in.o
 .text.at91_upll_clk_enable
                0x0000000000000000       0x70 arch/arm/mach-at91/built-in.o
 .text.at91_upll_clk_disable
                0x0000000000000000       0x68 arch/arm/mach-at91/built-in.o
 .text.at91_usb_clk_init
                0x0000000000000000       0x14 arch/arm/mach-at91/built-in.o
 .text.at91_pllicpr_init
                0x0000000000000000       0x14 arch/arm/mach-at91/built-in.o
 .text.at91_udp_hw_init
                0x0000000000000000       0x14 arch/arm/mach-at91/built-in.o
 .text.at91_plla_init
                0x0000000000000000       0x24 arch/arm/mach-at91/built-in.o
 .text.at91_mck_init
                0x0000000000000000       0x48 arch/arm/mach-at91/built-in.o
 .text.at91_mck_init_down
                0x0000000000000000       0xa8 arch/arm/mach-at91/built-in.o
 .text.at91_enable_periph_generated_clk
                0x0000000000000000      0x114 arch/arm/mach-at91/built-in.o
 .text.at91_get_periph_generated_clk
                0x0000000000000000       0xa4 arch/arm/mach-at91/built-in.o
 .rodata.at91_upll_clk_disable.str1.1
                0x0000000000000000       0x1c arch/arm/mach-at91/built-in.o
 .rodata.at91_upll_clk_enable.str1.1
                0x0000000000000000       0x1e arch/arm/mach-at91/built-in.o
 .rodata.at91_enable_periph_generated_clk.str1.1
                0x0000000000000000       0x43 arch/arm/mach-at91/built-in.o
 .rodata.at91_get_periph_generated_clk.str1.1
                0x0000000000000000       0x26 arch/arm/mach-at91/built-in.o
 .data          0x0000000000000000        0x0 arch/arm/mach-at91/built-in.o
 .bss           0x0000000000000000        0x0 arch/arm/mach-at91/built-in.o
 .text          0x0000000000000000        0x0 board/atmel/common/built-in.o
 .text.dummy    0x0000000000000000        0x4 board/atmel/common/built-in.o
 .text.at91_prepare_cpu_var
                0x0000000000000000       0x1c board/atmel/common/built-in.o
 .rodata.at91_prepare_cpu_var.str1.1
                0x0000000000000000        0x4 board/atmel/common/built-in.o
 .data          0x0000000000000000        0x0 board/atmel/common/built-in.o
 .bss           0x0000000000000000        0x0 board/atmel/common/built-in.o
 .text          0x0000000000000000        0x0 board/atmel/rugged_board_a5d2x/built-in.o
 .data          0x0000000000000000        0x0 board/atmel/rugged_board_a5d2x/built-in.o
 .bss           0x0000000000000000        0x0 board/atmel/rugged_board_a5d2x/built-in.o
 .text          0x0000000000000000        0x0 cmd/built-in.o
 .text.allow_unaligned
                0x0000000000000000        0x4 cmd/built-in.o
 .text.bootz_setup
                0x0000000000000000       0x18 cmd/built-in.o
 .text.i2c_init_board
                0x0000000000000000        0x4 cmd/built-in.o
 .rodata.bootz_setup.str1.1
                0x0000000000000000       0x34 cmd/built-in.o
 .data          0x0000000000000000        0x0 cmd/built-in.o
 .bss           0x0000000000000000        0x0 cmd/built-in.o
 .text          0x0000000000000000        0x0 common/built-in.o
 .text.hash_progressive_lookup_algo
                0x0000000000000000       0x60 common/built-in.o
 .text.hash_parse_string
                0x0000000000000000       0x68 common/built-in.o
 .text.hash_block
                0x0000000000000000       0x6c common/built-in.o
 .text.unset_local_var
                0x0000000000000000       0x9c common/built-in.o
 .text.arch_cpu_init
                0x0000000000000000        0x8 common/built-in.o
 .text.red_led_off
                0x0000000000000000        0x4 common/built-in.o
 .text.green_led_on
                0x0000000000000000        0x4 common/built-in.o
 .text.green_led_off
                0x0000000000000000        0x4 common/built-in.o
 .text.yellow_led_on
                0x0000000000000000        0x4 common/built-in.o
 .text.yellow_led_off
                0x0000000000000000        0x4 common/built-in.o
 .text.blue_led_on
                0x0000000000000000        0x4 common/built-in.o
 .text.blue_led_off
                0x0000000000000000        0x4 common/built-in.o
 .text.arch_reserve_stacks
                0x0000000000000000        0x8 common/built-in.o
 .text.board_flash_wp_on
                0x0000000000000000        0x8 common/built-in.o
 .text.fixup_cpu
                0x0000000000000000        0x8 common/built-in.o
 .text.board_quiesce_devices
                0x0000000000000000        0x4 common/built-in.o
 .text.arch_preboot_os
                0x0000000000000000        0x4 common/built-in.o
 .text.fdt_read_prop
                0x0000000000000000       0x64 common/built-in.o
 .text.fdt_getprop_u32_default_node
                0x0000000000000000       0x40 common/built-in.o
 .text.fdt_getprop_u32_default
                0x0000000000000000       0x40 common/built-in.o
 .text.do_fixup_by_path_u32
                0x0000000000000000       0x2c common/built-in.o
 .text.do_fixup_by_prop
                0x0000000000000000       0x9c common/built-in.o
 .text.do_fixup_by_prop_u32
                0x0000000000000000       0x38 common/built-in.o
 .text.do_fixup_by_compat
                0x0000000000000000       0x8c common/built-in.o
 .text.do_fixup_by_compat_u32
                0x0000000000000000       0x2c common/built-in.o
 .text.fdt_record_loadable
                0x0000000000000000      0x16c common/built-in.o
 .text.fdt_increase_size
                0x0000000000000000       0x14 common/built-in.o
 .text.fdt_del_node_and_alias
                0x0000000000000000       0x44 common/built-in.o
 .text.fdt_node_offset_by_compat_reg
                0x0000000000000000       0x8c common/built-in.o
 .text.fdt_alloc_phandle
                0x0000000000000000       0x58 common/built-in.o
 .text.fdt_set_phandle
                0x0000000000000000       0x60 common/built-in.o
 .text.fdt_create_phandle
                0x0000000000000000       0x64 common/built-in.o
 .text.fdt_set_node_status
                0x0000000000000000       0xe8 common/built-in.o
 .text.fdt_set_status_by_alias
                0x0000000000000000       0x2c common/built-in.o
 .text.fdt_verify_alias_address
                0x0000000000000000       0xcc common/built-in.o
 .text.fdt_get_base_address
                0x0000000000000000       0x40 common/built-in.o
 .text.fdt_read_range
                0x0000000000000000      0x13c common/built-in.o
 .text.fdt_setup_simplefb_node
                0x0000000000000000      0x208 common/built-in.o
 .text.fdt_fixup_display
                0x0000000000000000       0xd4 common/built-in.o
 .text.mdio_register_seq
                0x0000000000000000       0x34 common/built-in.o
 .text.mdio_list_devices
                0x0000000000000000       0xb0 common/built-in.o
 .text.miiphy_set_current_dev
                0x0000000000000000       0x40 common/built-in.o
 .text.miiphy_get_active_dev
                0x0000000000000000       0x54 common/built-in.o
 .text.mdio_get_current_dev
                0x0000000000000000       0x10 common/built-in.o
 .text.mdio_phydev_for_ethname
                0x0000000000000000       0x8c common/built-in.o
 .text.miiphy_get_current_dev
                0x0000000000000000       0x18 common/built-in.o
 .text.miiphy_read
                0x0000000000000000       0x4c common/built-in.o
 .text.miiphy_write
                0x0000000000000000       0x40 common/built-in.o
 .text.miiphy_listdev
                0x0000000000000000       0x78 common/built-in.o
 .text.miiphy_info
                0x0000000000000000       0x88 common/built-in.o
 .text.miiphy_speed
                0x0000000000000000       0xc4 common/built-in.o
 .text.miiphy_duplex
                0x0000000000000000       0xbc common/built-in.o
 .text.miiphy_is_1000base_x
                0x0000000000000000        0x8 common/built-in.o
 .text.usb_submit_int_msg
                0x0000000000000000        0x4 common/built-in.o
 .text.usb_set_protocol
                0x0000000000000000       0x4c common/built-in.o
 .text.usb_set_idle
                0x0000000000000000       0x54 common/built-in.o
 .text.usb_get_report
                0x0000000000000000       0x5c common/built-in.o
 .text.usb_get_class_descriptor
                0x0000000000000000       0x5c common/built-in.o
 .text.board_usb_init
                0x0000000000000000        0x8 common/built-in.o
 .text.board_usb_cleanup
                0x0000000000000000        0x8 common/built-in.o
 .text.usb_hub_probe
                0x0000000000000000       0x54 common/built-in.o
 .text.splash_screen_prepare
                0x0000000000000000        0x8 common/built-in.o
 .text.cli_simple_parse_line
                0x0000000000000000       0x8c common/built-in.o
 .text.cli_simple_process_macros
                0x0000000000000000      0x208 common/built-in.o
 .text.cli_simple_run_command
                0x0000000000000000      0x150 common/built-in.o
 .text.cli_simple_loop
                0x0000000000000000       0x80 common/built-in.o
 .text.cli_simple_run_command_list
                0x0000000000000000       0x70 common/built-in.o
 .text.serial_printf
                0x0000000000000000       0x44 common/built-in.o
 .text.fprintf  0x0000000000000000       0x4c common/built-in.o
 .text.confirm_yesno
                0x0000000000000000       0xcc common/built-in.o
 .text.console_announce_r
                0x0000000000000000       0x88 common/built-in.o
 .text.valloc   0x0000000000000000        0xc common/built-in.o
 .text.pvalloc  0x0000000000000000       0x18 common/built-in.o
 .text.cfree    0x0000000000000000        0x4 common/built-in.o
 .text.malloc_usable_size
                0x0000000000000000       0x44 common/built-in.o
 .text.mallopt  0x0000000000000000       0x54 common/built-in.o
 .text.memalign_simple
                0x0000000000000000       0x44 common/built-in.o
 .text.genimg_get_short_name
                0x0000000000000000       0x1c common/built-in.o
 .text.genimg_get_cat_name
                0x0000000000000000       0x5c common/built-in.o
 .text.genimg_get_cat_short_name
                0x0000000000000000       0x5c common/built-in.o
 .text.genimg_get_cat_count
                0x0000000000000000       0x18 common/built-in.o
 .text.genimg_get_cat_desc
                0x0000000000000000       0x18 common/built-in.o
 .text.genimg_get_type_short_name
                0x0000000000000000       0x10 common/built-in.o
 .text.genimg_get_comp_short_name
                0x0000000000000000       0x10 common/built-in.o
 .text.genimg_get_os_short_name
                0x0000000000000000       0x10 common/built-in.o
 .text.genimg_get_arch_short_name
                0x0000000000000000       0x10 common/built-in.o
 .text.genimg_get_kernel_addr
                0x0000000000000000       0x24 common/built-in.o
 .text.arch_fixup_fdt
                0x0000000000000000        0x8 common/built-in.o
 .text.fit_get_subimage_count
                0x0000000000000000       0x54 common/built-in.o
 .text.fit_get_timestamp
                0x0000000000000000       0x48 common/built-in.o
 .text.fit_set_timestamp
                0x0000000000000000       0x40 common/built-in.o
 .text.fit_conf_find_compat
                0x0000000000000000      0x1a0 common/built-in.o
 .text.fit_conf_get_prop_node_count
                0x0000000000000000        0x4 common/built-in.o
 .text.stdio_init
                0x0000000000000000       0x14 common/built-in.o
 .text.run_command_repeatable
                0x0000000000000000       0x1c common/built-in.o
 .text.hex1_bin
                0x0000000000000000       0x40 common/built-in.o
 .text.hex2_bin
                0x0000000000000000       0x38 common/built-in.o
 .text.srec_decode
                0x0000000000000000      0x244 common/built-in.o
 .rodata.__func__.9229
                0x0000000000000000       0x14 common/built-in.o
 .rodata.fdt_create_phandle.str1.1
                0x0000000000000000       0x1a common/built-in.o
 .rodata.fdt_fixup_display.str1.1
                0x0000000000000000       0x1c common/built-in.o
 .rodata.fdt_read_range.str1.1
                0x0000000000000000        0xf common/built-in.o
 .rodata.fdt_record_loadable.str1.1
                0x0000000000000000       0x2e common/built-in.o
 .rodata.fdt_set_node_status.str1.1
                0x0000000000000000       0x3a common/built-in.o
 .rodata.fdt_set_phandle.str1.1
                0x0000000000000000       0x16 common/built-in.o
 .rodata.fdt_setup_simplefb_node.str1.1
                0x0000000000000000       0x2c common/built-in.o
 .rodata.fdt_verify_alias_address.str1.1
                0x0000000000000000       0xcd common/built-in.o
 .rodata.mdio_list_devices.str1.1
                0x0000000000000000       0x19 common/built-in.o
 .rodata.mdio_phydev_for_ethname.str1.1
                0x0000000000000000       0x1c common/built-in.o
 .rodata.mdio_register_seq.str1.1
                0x0000000000000000        0x6 common/built-in.o
 .rodata.miiphy_duplex.str1.1
                0x0000000000000000       0x4f common/built-in.o
 .rodata.miiphy_listdev.str1.1
                0x0000000000000000       0x2a common/built-in.o
 .rodata.miiphy_set_current_dev.str1.1
                0x0000000000000000       0x14 common/built-in.o
 .rodata.miiphy_speed.str1.1
                0x0000000000000000       0x49 common/built-in.o
 .rodata.cli_simple_loop.str1.1
                0x0000000000000000       0x11 common/built-in.o
 .rodata.cli_simple_parse_line.str1.1
                0x0000000000000000       0x1f common/built-in.o
 .rodata.cli_simple_run_command.str1.1
                0x0000000000000000       0x16 common/built-in.o
 .rodata.confirm_yesno.str1.1
                0x0000000000000000       0x10 common/built-in.o
 .rodata.console_announce_r.str1.1
                0x0000000000000000        0x7 common/built-in.o
 .rodata.genimg_get_short_name.str1.1
                0x0000000000000000        0x8 common/built-in.o
 .rodata.table_info
                0x0000000000000000       0x30 common/built-in.o
 .rodata.unknown_str.8956
                0x0000000000000000        0x9 common/built-in.o
 .rodata.fit_conf_find_compat.str1.1
                0x0000000000000000        0xb common/built-in.o
 .rodata.fit_get_timestamp.str1.1
                0x0000000000000000        0xa common/built-in.o
 .data          0x0000000000000000        0x0 common/built-in.o
 .bss           0x0000000000000000        0x0 common/built-in.o
 .bss.lastcommand.8339
                0x0000000000000000      0x101 common/built-in.o
 .bss.msg.8957  0x0000000000000000       0x1e common/built-in.o
 .bss.save_addr
                0x0000000000000000        0x4 common/built-in.o
 .bss.save_size
                0x0000000000000000        0x4 common/built-in.o
 .text          0x0000000000000000        0x0 disk/built-in.o
 .text.blk_get_dev
                0x0000000000000000       0x30 disk/built-in.o
 .text.part_get_info_by_name_type
                0x0000000000000000       0x74 disk/built-in.o
 .text.part_get_info_by_name
                0x0000000000000000        0x8 disk/built-in.o
 .text.is_valid_dos_buf
                0x0000000000000000       0x18 disk/built-in.o
 .text.write_mbr_partition
                0x0000000000000000       0x64 disk/built-in.o
 .rodata.__func__.8359
                0x0000000000000000       0x14 disk/built-in.o
 .rodata.write_mbr_partition.str1.1
                0x0000000000000000       0x2d disk/built-in.o
 .data          0x0000000000000000        0x0 disk/built-in.o
 .bss           0x0000000000000000        0x0 disk/built-in.o
 .text          0x0000000000000000        0x0 drivers/built-in.o
 .text.clk_get_by_name
                0x0000000000000000       0x40 drivers/built-in.o
 .text.clk_enable_bulk
                0x0000000000000000       0x44 drivers/built-in.o
 .text.clk_disable
                0x0000000000000000       0x24 drivers/built-in.o
 .text.clk_release_all
                0x0000000000000000       0x6c drivers/built-in.o
 .text.clk_get_bulk
                0x0000000000000000       0xa0 drivers/built-in.o
 .text.clk_disable_bulk
                0x0000000000000000       0x44 drivers/built-in.o
 .text._device_find_global_by_of_offset
                0x0000000000000000       0x50 drivers/built-in.o
 .text.device_get_child
                0x0000000000000000       0x50 drivers/built-in.o
 .text.device_find_child_by_seq
                0x0000000000000000       0x68 drivers/built-in.o
 .text.device_get_child_by_seq
                0x0000000000000000       0x58 drivers/built-in.o
 .text.device_find_child_by_of_offset
                0x0000000000000000       0x4c drivers/built-in.o
 .text.device_get_child_by_of_offset
                0x0000000000000000       0x3c drivers/built-in.o
 .text.device_get_global_by_of_offset
                0x0000000000000000       0x38 drivers/built-in.o
 .text.dev_get_driver_ops
                0x0000000000000000       0x10 drivers/built-in.o
 .text.dev_get_uclass_name
                0x0000000000000000       0x14 drivers/built-in.o
 .text.device_has_children
                0x0000000000000000       0x14 drivers/built-in.o
 .text.device_set_name
                0x0000000000000000       0x30 drivers/built-in.o
 .text.device_is_compatible
                0x0000000000000000       0x18 drivers/built-in.o
 .text.of_machine_is_compatible
                0x0000000000000000       0x24 drivers/built-in.o
 .text.devfdt_get_addr_size_index
                0x0000000000000000       0x40 drivers/built-in.o
 .text.devfdt_get_addr_name
                0x0000000000000000       0x34 drivers/built-in.o
 .text.devfdt_remap_addr_index
                0x0000000000000000       0x14 drivers/built-in.o
 .text.devfdt_remap_addr
                0x0000000000000000        0x8 drivers/built-in.o
 .text.devfdt_map_physmem
                0x0000000000000000       0x14 drivers/built-in.o
 .text.dm_fixup_for_gd_move
                0x0000000000000000       0x20 drivers/built-in.o
 .text.dm_set_translation_offset
                0x0000000000000000       0x18 drivers/built-in.o
 .text.dm_uninit
                0x0000000000000000       0x20 drivers/built-in.o
 .text.uclass_destroy
                0x0000000000000000       0x9c drivers/built-in.o
 .text.uclass_get_name
                0x0000000000000000       0x28 drivers/built-in.o
 .text.uclass_get_by_name
                0x0000000000000000       0x4c drivers/built-in.o
 .text.uclass_find_device_by_name
                0x0000000000000000       0x88 drivers/built-in.o
 .text.uclass_get_device_by_driver
                0x0000000000000000       0x6c drivers/built-in.o
 .text.uclass_get_device_by_name
                0x0000000000000000       0x30 drivers/built-in.o
 .text.list_count_items
                0x0000000000000000       0x28 drivers/built-in.o
 .text.simple_bus_translate
                0x0000000000000000       0x38 drivers/built-in.o
 .text.regmap_get_range
                0x0000000000000000       0x18 drivers/built-in.o
 .text.regmap_uninit
                0x0000000000000000       0x10 drivers/built-in.o
 .text.regmap_update_bits
                0x0000000000000000       0x28 drivers/built-in.o
 .text.syscon_get_by_driver_data
                0x0000000000000000       0x70 drivers/built-in.o
 .text.syscon_get_regmap_by_driver_data
                0x0000000000000000       0x28 drivers/built-in.o
 .text.syscon_get_first_range
                0x0000000000000000       0x1c drivers/built-in.o
 .text.syscon_node_to_regmap
                0x0000000000000000       0xbc drivers/built-in.o
 .text.of_read_fmap_entry
                0x0000000000000000       0xc0 drivers/built-in.o
 .text.ofnode_read_s32_default
                0x0000000000000000       0x20 drivers/built-in.o
 .text.ofnode_find_subnode
                0x0000000000000000       0x1c drivers/built-in.o
 .text.ofnode_get_by_phandle
                0x0000000000000000       0x18 drivers/built-in.o
 .text.decode_timing_property
                0x0000000000000000       0x70 drivers/built-in.o
 .text.ofnode_get_addr_index
                0x0000000000000000       0x18 drivers/built-in.o
 .text.ofnode_get_addr
                0x0000000000000000        0x8 drivers/built-in.o
 .text.ofnode_read_string_index
                0x0000000000000000       0x44 drivers/built-in.o
 .text.ofnode_read_string_count
                0x0000000000000000       0x14 drivers/built-in.o
 .text.ofnode_decode_display_timing
                0x0000000000000000      0x2b8 drivers/built-in.o
 .text.ofnode_is_available
                0x0000000000000000       0x20 drivers/built-in.o
 .text.ofnode_read_u8_array_ptr
                0x0000000000000000       0x18 drivers/built-in.o
 .text.ofnode_read_pci_addr
                0x0000000000000000       0xa8 drivers/built-in.o
 .text.ofnode_read_resource
                0x0000000000000000       0x64 drivers/built-in.o
 .text.ofnode_read_resource_byname
                0x0000000000000000       0x34 drivers/built-in.o
 .text.ofnode_translate_address
                0x0000000000000000       0x14 drivers/built-in.o
 .text.ofnode_device_is_compatible
                0x0000000000000000       0x24 drivers/built-in.o
 .text.pinctrl_decode_pin_config
                0x0000000000000000       0x4c drivers/built-in.o
 .text.pinctrl_request
                0x0000000000000000       0x20 drivers/built-in.o
 .text.pinctrl_request_noflags
                0x0000000000000000        0x8 drivers/built-in.o
 .text.pinctrl_get_periph_id
                0x0000000000000000       0x20 drivers/built-in.o
 .text.pinctrl_get_gpio_mux
                0x0000000000000000       0x20 drivers/built-in.o
 .text.pinctrl_generic_set_state_subnode
                0x0000000000000000      0x2b4 drivers/built-in.o
 .text.pinctrl_generic_set_state
                0x0000000000000000       0x60 drivers/built-in.o
 .text.blk_get_from_parent
                0x0000000000000000       0x4c drivers/built-in.o
 .text.blk_unbind_all
                0x0000000000000000       0xa0 drivers/built-in.o
 .text.misc_read
                0x0000000000000000       0x2c drivers/built-in.o
 .text.misc_write
                0x0000000000000000       0x2c drivers/built-in.o
 .text.misc_ioctl
                0x0000000000000000       0x20 drivers/built-in.o
 .text.misc_call
                0x0000000000000000       0x2c drivers/built-in.o
 .text.i2c_eeprom_write
                0x0000000000000000       0x2c drivers/built-in.o
 .text.cpu_mmc_init
                0x0000000000000000        0x8 drivers/built-in.o
 .text.board_mmc_init
                0x0000000000000000        0x8 drivers/built-in.o
 .text.mmc_set_preinit
                0x0000000000000000        0x8 drivers/built-in.o
 .text.mmc_of_parse
                0x0000000000000000      0x1f4 drivers/built-in.o
 .text.mmc_get_next_devnum
                0x0000000000000000        0x8 drivers/built-in.o
 .text.mmc_unbind
                0x0000000000000000       0x34 drivers/built-in.o
 .text._input_send_keycodes
                0x0000000000000000      0x418 drivers/built-in.o
 .text.input_tstc
                0x0000000000000000       0x48 drivers/built-in.o
 .text.input_getc
                0x0000000000000000       0x5c drivers/built-in.o
 .text.input_send_keycodes
                0x0000000000000000        0x8 drivers/built-in.o
 .text.input_add_keycode
                0x0000000000000000       0x84 drivers/built-in.o
 .text.input_add_table
                0x0000000000000000       0x40 drivers/built-in.o
 .text.input_set_delays
                0x0000000000000000        0xc drivers/built-in.o
 .text.input_allow_repeats
                0x0000000000000000        0x8 drivers/built-in.o
 .text.input_leds_changed
                0x0000000000000000       0x14 drivers/built-in.o
 .text.input_add_tables
                0x0000000000000000       0x98 drivers/built-in.o
 .text.input_init
                0x0000000000000000       0x24 drivers/built-in.o
 .text.input_stdio_register
                0x0000000000000000       0x54 drivers/built-in.o
 .text.create_keymap
                0x0000000000000000       0x8c drivers/built-in.o
 .text.key_matrix_decode
                0x0000000000000000       0xfc drivers/built-in.o
 .text.key_matrix_decode_fdt
                0x0000000000000000       0xb0 drivers/built-in.o
 .text.key_matrix_init
                0x0000000000000000       0x3c drivers/built-in.o
 .text.w1_init  0x0000000000000000       0x84 drivers/built-in.o
 .text.w1_eeprom_dm_init
                0x0000000000000000       0x78 drivers/built-in.o
 .rodata.clk_get_by_name.str1.1
                0x0000000000000000        0xc drivers/built-in.o
 .rodata.devfdt_get_addr_name.str1.1
                0x0000000000000000        0xa drivers/built-in.o
 .rodata.of_read_fmap_entry.str1.1
                0x0000000000000000       0x1b drivers/built-in.o
 .rodata.ofnode_decode_display_timing.str1.1
                0x0000000000000000       0xca drivers/built-in.o
 .rodata.ofnode_read_resource.str1.1
                0x0000000000000000        0x4 drivers/built-in.o
 .rodata.ofnode_read_resource_byname.str1.1
                0x0000000000000000        0xa drivers/built-in.o
 .rodata.pinctrl_decode_pin_config.str1.1
                0x0000000000000000       0x1c drivers/built-in.o
 .rodata.pinctrl_generic_set_state_subnode.str1.1
                0x0000000000000000       0x15 drivers/built-in.o
 .rodata.mmc_of_parse.str1.1
                0x0000000000000000       0xd4 drivers/built-in.o
 .rodata.input_stdio_register.str1.1
                0x0000000000000000        0x6 drivers/built-in.o
 .rodata.kbd_plain_xlate
                0x0000000000000000       0x64 drivers/built-in.o
 .rodata.kbd_plain_xlate_german
                0x0000000000000000       0x84 drivers/built-in.o
 .rodata.kbd_to_ansi364
                0x0000000000000000       0x20 drivers/built-in.o
 .rodata.key_matrix_decode_fdt.str1.1
                0x0000000000000000       0x1d drivers/built-in.o
 .rodata.w1_init.str1.1
                0x0000000000000000       0x3b drivers/built-in.o
 .rodata.w1_eeprom_dm_init.str1.1
                0x0000000000000000       0x22 drivers/built-in.o
 .data          0x0000000000000000        0x0 drivers/built-in.o
 .data.syscon_list
                0x0000000000000000        0x8 drivers/built-in.o
 .data.kbd_ctrl_xlate
                0x0000000000000000       0x64 drivers/built-in.o
 .data.kbd_entry
                0x0000000000000000       0x8c drivers/built-in.o
 .data.kbd_right_alt_xlate_german
                0x0000000000000000       0x58 drivers/built-in.o
 .data.kbd_shift_xlate
                0x0000000000000000       0x64 drivers/built-in.o
 .data.kbd_shift_xlate_german
                0x0000000000000000       0x84 drivers/built-in.o
 .bss           0x0000000000000000        0x0 drivers/built-in.o
 .text          0x0000000000000000        0x0 drivers/gpio/built-in.o
 .text.get_function
                0x0000000000000000       0xac drivers/gpio/built-in.o
 .text.gpio_to_device
                0x0000000000000000       0x80 drivers/gpio/built-in.o
 .text.dm_gpio_lookup_name
                0x0000000000000000      0x108 drivers/gpio/built-in.o
 .text.gpio_lookup_name
                0x0000000000000000       0x70 drivers/gpio/built-in.o
 .text.gpio_request
                0x0000000000000000       0x2c drivers/gpio/built-in.o
 .text.gpio_requestf
                0x0000000000000000       0x44 drivers/gpio/built-in.o
 .text.gpio_free
                0x0000000000000000       0x28 drivers/gpio/built-in.o
 .text.gpio_direction_input
                0x0000000000000000       0x4c drivers/gpio/built-in.o
 .text.gpio_direction_output
                0x0000000000000000       0x54 drivers/gpio/built-in.o
 .text.dm_gpio_get_open_drain
                0x0000000000000000       0x50 drivers/gpio/built-in.o
 .text.dm_gpio_set_open_drain
                0x0000000000000000       0x4c drivers/gpio/built-in.o
 .text.dm_gpio_set_dir
                0x0000000000000000        0x8 drivers/gpio/built-in.o
 .text.gpio_get_value
                0x0000000000000000       0x24 drivers/gpio/built-in.o
 .text.gpio_set_value
                0x0000000000000000       0x2c drivers/gpio/built-in.o
 .text.gpio_get_bank_info
                0x0000000000000000       0x1c drivers/gpio/built-in.o
 .text.gpio_get_function
                0x0000000000000000        0xc drivers/gpio/built-in.o
 .text.gpio_get_raw_function
                0x0000000000000000        0xc drivers/gpio/built-in.o
 .text.gpio_get_status
                0x0000000000000000      0x114 drivers/gpio/built-in.o
 .text.gpio_claim_vector
                0x0000000000000000       0x80 drivers/gpio/built-in.o
 .text.gpio_get_values_as_int
                0x0000000000000000       0x44 drivers/gpio/built-in.o
 .text.dm_gpio_get_values_as_int
                0x0000000000000000       0x4c drivers/gpio/built-in.o
 .text.gpio_request_by_name_nodev
                0x0000000000000000       0x64 drivers/gpio/built-in.o
 .text.gpio_get_list_count
                0x0000000000000000       0x3c drivers/gpio/built-in.o
 .text.gpio_get_number
                0x0000000000000000       0x20 drivers/gpio/built-in.o
 .text.atmel_pio4_set_gpio
                0x0000000000000000        0xc drivers/gpio/built-in.o
 .text.atmel_pio4_set_b_periph
                0x0000000000000000        0xc drivers/gpio/built-in.o
 .text.atmel_pio4_set_c_periph
                0x0000000000000000        0xc drivers/gpio/built-in.o
 .text.atmel_pio4_set_d_periph
                0x0000000000000000        0xc drivers/gpio/built-in.o
 .text.atmel_pio4_set_e_periph
                0x0000000000000000        0xc drivers/gpio/built-in.o
 .text.atmel_pio4_set_f_periph
                0x0000000000000000        0xc drivers/gpio/built-in.o
 .text.atmel_pio4_set_g_periph
                0x0000000000000000        0xc drivers/gpio/built-in.o
 .text.atmel_pio4_get_pio_input
                0x0000000000000000       0x60 drivers/gpio/built-in.o
 .rodata.dm_gpio_get_open_drain.str1.1
                0x0000000000000000        0xf drivers/gpio/built-in.o
 .rodata.dm_gpio_set_open_drain.str1.1
                0x0000000000000000        0xf drivers/gpio/built-in.o
 .rodata.gpio_direction_input.str1.1
                0x0000000000000000        0xa drivers/gpio/built-in.o
 .rodata.gpio_direction_output.str1.1
                0x0000000000000000        0xb drivers/gpio/built-in.o
 .rodata.gpio_function
                0x0000000000000000       0x14 drivers/gpio/built-in.o
 .rodata.gpio_get_status.str1.1
                0x0000000000000000       0x19 drivers/gpio/built-in.o
 .data          0x0000000000000000        0x0 drivers/gpio/built-in.o
 .bss           0x0000000000000000        0x0 drivers/gpio/built-in.o
 .text          0x0000000000000000        0x0 drivers/i2c/built-in.o
 .text.i2c_dump_msgs
                0x0000000000000000       0x88 drivers/i2c/built-in.o
 .text.dm_i2c_xfer
                0x0000000000000000       0x3c drivers/i2c/built-in.o
 .text.dm_i2c_reg_read
                0x0000000000000000       0x20 drivers/i2c/built-in.o
 .text.dm_i2c_reg_write
                0x0000000000000000       0x20 drivers/i2c/built-in.o
 .text.i2c_get_chip_for_busnum
                0x0000000000000000       0x44 drivers/i2c/built-in.o
 .rodata.i2c_dump_msgs.str1.1
                0x0000000000000000       0x1b drivers/i2c/built-in.o
 .data          0x0000000000000000        0x0 drivers/i2c/built-in.o
 .bss           0x0000000000000000        0x0 drivers/i2c/built-in.o
 .text          0x0000000000000000        0x0 drivers/mtd/built-in.o
 .text.mtd_ooblayout_ecc
                0x0000000000000000       0x74 drivers/mtd/built-in.o
 .text.mtd_ooblayout_free
                0x0000000000000000       0x74 drivers/mtd/built-in.o
 .text.mtd_ooblayout_find_region
                0x0000000000000000       0x80 drivers/mtd/built-in.o
 .text.mtd_ooblayout_get_bytes
                0x0000000000000000       0x94 drivers/mtd/built-in.o
 .text.mtd_ooblayout_set_bytes
                0x0000000000000000       0x94 drivers/mtd/built-in.o
 .text.idr_remove
                0x0000000000000000       0x14 drivers/mtd/built-in.o
 .text.idr_find
                0x0000000000000000       0x14 drivers/mtd/built-in.o
 .text.idr_get_next
                0x0000000000000000       0x44 drivers/mtd/built-in.o
 .text.idr_alloc
                0x0000000000000000       0x3c drivers/mtd/built-in.o
 .text.__mtd_next_device
                0x0000000000000000       0x20 drivers/mtd/built-in.o
 .text.del_mtd_device
                0x0000000000000000       0x70 drivers/mtd/built-in.o
 .text.__get_mtd_device
                0x0000000000000000       0x38 drivers/mtd/built-in.o
 .text.get_mtd_device
                0x0000000000000000       0x98 drivers/mtd/built-in.o
 .text.get_mtd_device_nm
                0x0000000000000000       0x5c drivers/mtd/built-in.o
 .text.__put_mtd_device
                0x0000000000000000       0x54 drivers/mtd/built-in.o
 .text.put_mtd_device
                0x0000000000000000        0x4 drivers/mtd/built-in.o
 .text.mtd_erase
                0x0000000000000000       0x90 drivers/mtd/built-in.o
 .text.mtd_get_unmapped_area
                0x0000000000000000       0x60 drivers/mtd/built-in.o
 .text.mtd_read
                0x0000000000000000       0xa4 drivers/mtd/built-in.o
 .text.mtd_write
                0x0000000000000000       0x98 drivers/mtd/built-in.o
 .text.mtd_panic_write
                0x0000000000000000       0xa0 drivers/mtd/built-in.o
 .text.mtd_read_oob
                0x0000000000000000       0x60 drivers/mtd/built-in.o
 .text.mtd_ooblayout_find_eccregion
                0x0000000000000000       0x1c drivers/mtd/built-in.o
 .text.mtd_ooblayout_get_eccbytes
                0x0000000000000000       0x24 drivers/mtd/built-in.o
 .text.mtd_ooblayout_set_eccbytes
                0x0000000000000000       0x24 drivers/mtd/built-in.o
 .text.mtd_ooblayout_get_databytes
                0x0000000000000000       0x24 drivers/mtd/built-in.o
 .text.mtd_ooblayout_set_databytes
                0x0000000000000000       0x24 drivers/mtd/built-in.o
 .text.mtd_ooblayout_count_freebytes
                0x0000000000000000       0x44 drivers/mtd/built-in.o
 .text.mtd_ooblayout_count_eccbytes
                0x0000000000000000       0x44 drivers/mtd/built-in.o
 .text.mtd_get_fact_prot_info
                0x0000000000000000       0x34 drivers/mtd/built-in.o
 .text.mtd_read_fact_prot_reg
                0x0000000000000000       0x40 drivers/mtd/built-in.o
 .text.mtd_get_user_prot_info
                0x0000000000000000       0x34 drivers/mtd/built-in.o
 .text.mtd_read_user_prot_reg
                0x0000000000000000       0x40 drivers/mtd/built-in.o
 .text.mtd_write_user_prot_reg
                0x0000000000000000       0x64 drivers/mtd/built-in.o
 .text.mtd_lock_user_prot_reg
                0x0000000000000000       0x38 drivers/mtd/built-in.o
 .text.mtd_lock
                0x0000000000000000       0x74 drivers/mtd/built-in.o
 .text.mtd_unlock
                0x0000000000000000       0x74 drivers/mtd/built-in.o
 .text.add_mtd_device
                0x0000000000000000      0x1d4 drivers/mtd/built-in.o
 .text.mtd_is_locked
                0x0000000000000000       0x74 drivers/mtd/built-in.o
 .text.mtd_block_isreserved
                0x0000000000000000       0x50 drivers/mtd/built-in.o
 .text.mtd_block_isbad
                0x0000000000000000       0x50 drivers/mtd/built-in.o
 .text.mtd_block_markbad
                0x0000000000000000       0x64 drivers/mtd/built-in.o
 .rodata.__func__.10188
                0x0000000000000000        0xf drivers/mtd/built-in.o
 .rodata.__func__.10227
                0x0000000000000000       0x11 drivers/mtd/built-in.o
 .rodata.__put_mtd_device.str1.1
                0x0000000000000000       0x2f drivers/mtd/built-in.o
 .rodata.add_mtd_device.str1.1
                0x0000000000000000       0x28 drivers/mtd/built-in.o
 .rodata.del_mtd_device.str1.1
                0x0000000000000000       0x30 drivers/mtd/built-in.o
 .data          0x0000000000000000        0x0 drivers/mtd/built-in.o
 .bss           0x0000000000000000        0x0 drivers/mtd/built-in.o
 .bss.mtd_idr   0x0000000000000000      0x200 drivers/mtd/built-in.o
 .bss.mtd_table
                0x0000000000000000       0x80 drivers/mtd/built-in.o
 .text          0x0000000000000000        0x0 drivers/mtd/spi/built-in.o
 .text.spi_flash_free
                0x0000000000000000       0x10 drivers/mtd/spi/built-in.o
 .text.spi_flash_probe
                0x0000000000000000       0x2c drivers/mtd/spi/built-in.o
 .data          0x0000000000000000        0x0 drivers/mtd/spi/built-in.o
 .bss           0x0000000000000000        0x0 drivers/mtd/spi/built-in.o
 .text          0x0000000000000000        0x0 drivers/net/built-in.o
 .data          0x0000000000000000        0x0 drivers/net/built-in.o
 .bss           0x0000000000000000        0x0 drivers/net/built-in.o
 .text          0x0000000000000000        0x0 drivers/net/phy/built-in.o
 .text.phy_register
                0x0000000000000000       0x28 drivers/net/phy/built-in.o
 .text.phy_set_supported
                0x0000000000000000       0x5c drivers/net/phy/built-in.o
 .text.miiphy_reset
                0x0000000000000000       0x24 drivers/net/phy/built-in.o
 .text.phy_startup
                0x0000000000000000       0x1c drivers/net/phy/built-in.o
 .text.phy_shutdown
                0x0000000000000000       0x28 drivers/net/phy/built-in.o
 .data          0x0000000000000000        0x0 drivers/net/phy/built-in.o
 .bss           0x0000000000000000        0x0 drivers/net/phy/built-in.o
 .text          0x0000000000000000        0x0 drivers/serial/built-in.o
 .text.printhex2
                0x0000000000000000       0x60 drivers/serial/built-in.o
 .text.printhex4
                0x0000000000000000       0x48 drivers/serial/built-in.o
 .text.printhex8
                0x0000000000000000       0x48 drivers/serial/built-in.o
 .data          0x0000000000000000        0x0 drivers/serial/built-in.o
 .bss           0x0000000000000000        0x0 drivers/serial/built-in.o
 .text          0x0000000000000000        0x0 drivers/spi/built-in.o
 .text.spi_chip_select
                0x0000000000000000       0x18 drivers/spi/built-in.o
 .text.spi_cs_info
                0x0000000000000000       0x5c drivers/spi/built-in.o
 .text.spi_cs_is_valid
                0x0000000000000000       0x3c drivers/spi/built-in.o
 .text.spi_setup_slave
                0x0000000000000000       0x3c drivers/spi/built-in.o
 .text.spi_free_slave
                0x0000000000000000       0x20 drivers/spi/built-in.o
 .data          0x0000000000000000        0x0 drivers/spi/built-in.o
 .bss           0x0000000000000000        0x0 drivers/spi/built-in.o
 .text          0x0000000000000000        0x0 drivers/usb/common/built-in.o
 .text.usb_get_dr_mode
                0x0000000000000000       0x74 drivers/usb/common/built-in.o
 .text.usb_get_maximum_speed
                0x0000000000000000       0x74 drivers/usb/common/built-in.o
 .rodata.speed_names
                0x0000000000000000       0x18 drivers/usb/common/built-in.o
 .rodata.str1.1
                0x0000000000000000       0x52 drivers/usb/common/built-in.o
 .rodata.usb_dr_modes
                0x0000000000000000       0x10 drivers/usb/common/built-in.o
 .rodata.usb_get_dr_mode.str1.1
                0x0000000000000000       0x1f drivers/usb/common/built-in.o
 .rodata.usb_get_maximum_speed.str1.1
                0x0000000000000000       0x2b drivers/usb/common/built-in.o
 .data          0x0000000000000000        0x0 drivers/usb/common/built-in.o
 .bss           0x0000000000000000        0x0 drivers/usb/common/built-in.o
 .comment       0x0000000000000000       0x12 drivers/usb/common/built-in.o
 .note.GNU-stack
                0x0000000000000000        0x0 drivers/usb/common/built-in.o
 .ARM.attributes
                0x0000000000000000       0x2d drivers/usb/common/built-in.o
 .debug_aranges
                0x0000000000000000       0x28 drivers/usb/common/built-in.o
 .debug_info    0x0000000000000000     0x116d drivers/usb/common/built-in.o
 .debug_abbrev  0x0000000000000000      0x282 drivers/usb/common/built-in.o
 .debug_line    0x0000000000000000      0x246 drivers/usb/common/built-in.o
 .debug_frame   0x0000000000000000       0x50 drivers/usb/common/built-in.o
 .debug_str     0x0000000000000000     0x1203 drivers/usb/common/built-in.o
 .debug_loc     0x0000000000000000       0xf6 drivers/usb/common/built-in.o
 .debug_ranges  0x0000000000000000       0x18 drivers/usb/common/built-in.o
 .text          0x0000000000000000        0x0 drivers/usb/gadget/built-in.o
 .text.usb_ep_autoconfig
                0x0000000000000000      0x1e8 drivers/usb/gadget/built-in.o
 .text.usb_ep_autoconfig_reset
                0x0000000000000000       0x38 drivers/usb/gadget/built-in.o
 .text.usb_descriptor_fillbuf
                0x0000000000000000       0x64 drivers/usb/gadget/built-in.o
 .text.usb_gadget_config_buf
                0x0000000000000000       0x90 drivers/usb/gadget/built-in.o
 .text.usb_gadget_get_string
                0x0000000000000000      0x18c drivers/usb/gadget/built-in.o
 .text.request_complete
                0x0000000000000000       0x18 drivers/usb/gadget/built-in.o
 .text.usba_ep_enable
                0x0000000000000000      0x19c drivers/usb/gadget/built-in.o
 .text.usba_ep_queue
                0x0000000000000000       0xb0 drivers/usb/gadget/built-in.o
 .text.usba_ep_set_halt
                0x0000000000000000       0x80 drivers/usb/gadget/built-in.o
 .text.usba_ep_fifo_status
                0x0000000000000000       0x10 drivers/usb/gadget/built-in.o
 .text.usba_ep_fifo_flush
                0x0000000000000000       0x1c drivers/usb/gadget/built-in.o
 .text.usba_udc_get_frame
                0x0000000000000000       0x10 drivers/usb/gadget/built-in.o
 .text.usba_udc_wakeup
                0x0000000000000000       0x24 drivers/usb/gadget/built-in.o
 .text.usba_udc_set_selfpowered
                0x0000000000000000       0x1c drivers/usb/gadget/built-in.o
 .text.next_fifo_transaction
                0x0000000000000000       0x8c drivers/usb/gadget/built-in.o
 .text.submit_request
                0x0000000000000000       0x4c drivers/usb/gadget/built-in.o
 .text.submit_next_request
                0x0000000000000000       0x34 drivers/usb/gadget/built-in.o
 .text.usba_ep_dequeue
                0x0000000000000000       0x40 drivers/usb/gadget/built-in.o
 .text.usba_ep_free_request
                0x0000000000000000        0x8 drivers/usb/gadget/built-in.o
 .text.usba_ep_alloc_request
                0x0000000000000000       0x24 drivers/usb/gadget/built-in.o
 .text.get_ep_by_addr.constprop.10
                0x0000000000000000       0x60 drivers/usb/gadget/built-in.o
 .text.usba_ep_disable
                0x0000000000000000       0xf0 drivers/usb/gadget/built-in.o
 .text.reset_all_endpoints.constprop.11
                0x0000000000000000       0xb0 drivers/usb/gadget/built-in.o
 .text.receive_data
                0x0000000000000000      0x104 drivers/usb/gadget/built-in.o
 .text.usb_gadget_handle_interrupts
                0x0000000000000000      0x80c drivers/usb/gadget/built-in.o
 .text.usb_gadget_register_driver
                0x0000000000000000       0xb0 drivers/usb/gadget/built-in.o
 .text.usb_gadget_unregister_driver
                0x0000000000000000       0x78 drivers/usb/gadget/built-in.o
 .text.usba_udc_probe
                0x0000000000000000      0x140 drivers/usb/gadget/built-in.o
 .rodata.str1.1
                0x0000000000000000        0xf drivers/usb/gadget/built-in.o
 .rodata.test_packet_buffer.10545
                0x0000000000000000       0x35 drivers/usb/gadget/built-in.o
 .rodata.usb_gadget_register_driver.str1.1
                0x0000000000000000       0x4b drivers/usb/gadget/built-in.o
 .rodata.usba_ep_ops
                0x0000000000000000       0x28 drivers/usb/gadget/built-in.o
 .rodata.usba_udc_ops
                0x0000000000000000       0x24 drivers/usb/gadget/built-in.o
 .rodata.usba_udc_probe.str1.1
                0x0000000000000000       0x15 drivers/usb/gadget/built-in.o
 .data          0x0000000000000000        0x0 drivers/usb/gadget/built-in.o
 .data.controller
                0x0000000000000000       0x6c drivers/usb/gadget/built-in.o
 .data.usba_ep0_desc
                0x0000000000000000        0x9 drivers/usb/gadget/built-in.o
 .bss           0x0000000000000000        0x0 drivers/usb/gadget/built-in.o
 .bss.epnum     0x0000000000000000        0x4 drivers/usb/gadget/built-in.o
 .comment       0x0000000000000000       0x48 drivers/usb/gadget/built-in.o
 .note.GNU-stack
                0x0000000000000000        0x0 drivers/usb/gadget/built-in.o
 .ARM.attributes
                0x0000000000000000       0x2d drivers/usb/gadget/built-in.o
 .debug_aranges
                0x0000000000000000      0x140 drivers/usb/gadget/built-in.o
 .debug_info    0x0000000000000000     0x6dc0 drivers/usb/gadget/built-in.o
 .debug_abbrev  0x0000000000000000      0xfb8 drivers/usb/gadget/built-in.o
 .debug_line    0x0000000000000000     0x1148 drivers/usb/gadget/built-in.o
 .debug_frame   0x0000000000000000      0x338 drivers/usb/gadget/built-in.o
 .debug_str     0x0000000000000000     0x4824 drivers/usb/gadget/built-in.o
 .debug_loc     0x0000000000000000     0x22e8 drivers/usb/gadget/built-in.o
 .debug_ranges  0x0000000000000000      0x5b0 drivers/usb/gadget/built-in.o
 .text          0x0000000000000000        0x0 drivers/usb/host/built-in.o
 .text.create_int_queue
                0x0000000000000000       0x54 drivers/usb/host/built-in.o
 .text.poll_int_queue
                0x0000000000000000       0x30 drivers/usb/host/built-in.o
 .text.destroy_int_queue
                0x0000000000000000       0x30 drivers/usb/host/built-in.o
 .text.usb_setup_ehci_gadget
                0x0000000000000000       0x70 drivers/usb/host/built-in.o
 .text.usb_detect_change
                0x0000000000000000       0xb0 drivers/usb/host/built-in.o
 .data          0x0000000000000000        0x0 drivers/usb/host/built-in.o
 .bss           0x0000000000000000        0x0 drivers/usb/host/built-in.o
 .text          0x0000000000000000        0x0 env/built-in.o
 .text.env_flags_parse_varaccess_from_binflags
                0x0000000000000000       0x58 env/built-in.o
 .rodata.env_flags_parse_varaccess_from_binflags.str1.1
                0x0000000000000000       0x2c env/built-in.o
 .data          0x0000000000000000        0x0 env/built-in.o
 .bss           0x0000000000000000        0x0 env/built-in.o
 .text          0x0000000000000000        0x0 fs/built-in.o
 .text.fs_get_type_name
                0x0000000000000000       0x1c fs/built-in.o
 .text.fs_uuid  0x0000000000000000       0x28 fs/built-in.o
 .text.do_save  0x0000000000000000      0x178 fs/built-in.o
 .text.do_fs_uuid
                0x0000000000000000       0x8c fs/built-in.o
 .text.do_fs_type
                0x0000000000000000       0x70 fs/built-in.o
 .text.fat_register_device
                0x0000000000000000       0x88 fs/built-in.o
 .rodata.do_fs_uuid.str1.1
                0x0000000000000000        0x4 fs/built-in.o
 .rodata.do_save.str1.1
                0x0000000000000000       0x1d fs/built-in.o
 .rodata.fat_register_device.str1.1
                0x0000000000000000       0x2b fs/built-in.o
 .data          0x0000000000000000        0x0 fs/built-in.o
 .bss           0x0000000000000000        0x0 fs/built-in.o
 .bss.ext4fs_symlinknest
                0x0000000000000000        0x4 fs/built-in.o
 .bss.g_parent_inode
                0x0000000000000000        0x4 fs/built-in.o
 .text          0x0000000000000000        0x0 lib/built-in.o
 .text.invalidate_icache_all
                0x0000000000000000        0x4 lib/built-in.o
 .text.indent_string
                0x0000000000000000       0x30 lib/built-in.o
 .text.__efi_nesting
                0x0000000000000000       0x10 lib/built-in.o
 .text.__efi_nesting_inc
                0x0000000000000000       0x18 lib/built-in.o
 .text.__efi_nesting_dec
                0x0000000000000000       0x18 lib/built-in.o
 .text.efi_add_runtime_mmio
                0x0000000000000000       0xb8 lib/built-in.o
 .text.efi_dp_from_dev
                0x0000000000000000       0x3c lib/built-in.o
 .text.fdt_nop_property
                0x0000000000000000       0x40 lib/built-in.o
 .text.fdt_nop_node
                0x0000000000000000       0x50 lib/built-in.o
 .text.fdt_sw_check_header_
                0x0000000000000000       0x1c lib/built-in.o
 .text.fdt_grab_space_
                0x0000000000000000       0x60 lib/built-in.o
 .text.fdt_create
                0x0000000000000000       0x64 lib/built-in.o
 .text.fdt_resize
                0x0000000000000000       0xbc lib/built-in.o
 .text.fdt_add_reservemap_entry
                0x0000000000000000       0x8c lib/built-in.o
 .text.fdt_finish_reservemap
                0x0000000000000000       0x1c lib/built-in.o
 .text.fdt_begin_node
                0x0000000000000000       0x64 lib/built-in.o
 .text.fdt_end_node
                0x0000000000000000       0x38 lib/built-in.o
 .text.fdt_property_placeholder
                0x0000000000000000      0x110 lib/built-in.o
 .text.fdt_property
                0x0000000000000000       0x3c lib/built-in.o
 .text.fdt_finish
                0x0000000000000000      0x100 lib/built-in.o
 .text.fdt_set_name
                0x0000000000000000       0x88 lib/built-in.o
 .text.fdt_appendprop
                0x0000000000000000       0xdc lib/built-in.o
 .text.fdt_create_empty_tree
                0x0000000000000000       0x74 lib/built-in.o
 .text.fdt_get_alias
                0x0000000000000000       0x28 lib/built-in.o
 .text.fdt_node_offset_by_prop_value
                0x0000000000000000       0x98 lib/built-in.o
 .text.fdt_stringlist_contains
                0x0000000000000000       0x7c lib/built-in.o
 .text.fdt_node_check_compatible
                0x0000000000000000       0x40 lib/built-in.o
 .text.fdt_node_offset_by_compatible
                0x0000000000000000       0x74 lib/built-in.o
 .text.fdt_add_region
                0x0000000000000000       0x98 lib/built-in.o
 .text.fdt_find_regions
                0x0000000000000000      0x398 lib/built-in.o
 .text.fdt_add_alias_regions
                0x0000000000000000      0x19c lib/built-in.o
 .text.fdt_next_region
                0x0000000000000000      0x52c lib/built-in.o
 .text.fdt_first_region
                0x0000000000000000       0x48 lib/built-in.o
 .text.atmel_logo_info
                0x0000000000000000       0x2c lib/built-in.o
 .text.microchip_logo_info
                0x0000000000000000       0x2c lib/built-in.o
 .text.utf16_strcpy
                0x0000000000000000       0x18 lib/built-in.o
 .text.utf16_strdup
                0x0000000000000000       0x38 lib/built-in.o
 .text.crc7     0x0000000000000000       0x24 lib/built-in.o
 .text.crc8     0x0000000000000000       0x48 lib/built-in.o
 .text.lmb_dump_all
                0x0000000000000000        0x4 lib/built-in.o
 .text.lmb_is_reserved
                0x0000000000000000       0x58 lib/built-in.o
 .text.arch_lmb_reserve
                0x0000000000000000        0x4 lib/built-in.o
 .text.ldiv     0x0000000000000000       0x3c lib/built-in.o
 .text.byteReverse
                0x0000000000000000        0x4 lib/built-in.o
 .text.md5      0x0000000000000000       0x64 lib/built-in.o
 .text.rc4_encode
                0x0000000000000000       0xe8 lib/built-in.o
 .text.sha1_csum
                0x0000000000000000       0x3c lib/built-in.o
 .text.sha1_hmac
                0x0000000000000000      0x124 lib/built-in.o
 .text.sha1_self_test
                0x0000000000000000        0x8 lib/built-in.o
 .text.inflateInit_
                0x0000000000000000       0x10 lib/built-in.o
 .text.fdtdec_get_compatible
                0x0000000000000000       0x10 lib/built-in.o
 .text.fdtdec_get_uint64
                0x0000000000000000       0x40 lib/built-in.o
 .text.fdtdec_lookup
                0x0000000000000000       0x48 lib/built-in.o
 .text.fdtdec_next_compatible
                0x0000000000000000       0x10 lib/built-in.o
 .text.fdtdec_next_compatible_subnode
                0x0000000000000000       0x64 lib/built-in.o
 .text.fdtdec_next_alias
                0x0000000000000000       0x94 lib/built-in.o
 .text.fdtdec_add_aliases_for_id
                0x0000000000000000      0x254 lib/built-in.o
 .text.fdtdec_find_aliases_for_id
                0x0000000000000000       0x44 lib/built-in.o
 .text.fdtdec_check_fdt
                0x0000000000000000       0x10 lib/built-in.o
 .text.fdtdec_lookup_phandle
                0x0000000000000000       0x34 lib/built-in.o
 .text.decode_timing_property
                0x0000000000000000       0x80 lib/built-in.o
 .text.fdtdec_locate_array
                0x0000000000000000       0x28 lib/built-in.o
 .text.fdtdec_get_bool
                0x0000000000000000       0x1c lib/built-in.o
 .text.fdtdec_get_child_count
                0x0000000000000000       0x34 lib/built-in.o
 .text.fdtdec_get_byte_array
                0x0000000000000000       0x40 lib/built-in.o
 .text.fdtdec_locate_byte_array
                0x0000000000000000       0x24 lib/built-in.o
 .text.fdtdec_get_config_bool
                0x0000000000000000       0x44 lib/built-in.o
 .text.fdtdec_decode_region
                0x0000000000000000       0x54 lib/built-in.o
 .text.fdtdec_get_addr_size_auto_parent
                0x0000000000000000       0x6c lib/built-in.o
 .text.fdtdec_get_addr_size_auto_noparent
                0x0000000000000000       0x54 lib/built-in.o
 .text.fdtdec_get_addr
                0x0000000000000000        0x8 lib/built-in.o
 .text.fdt_get_resource
                0x0000000000000000       0xe0 lib/built-in.o
 .text.fdt_get_named_resource
                0x0000000000000000       0x40 lib/built-in.o
 .text.fdtdec_decode_memory_region
                0x0000000000000000      0x130 lib/built-in.o
 .text.fdtdec_decode_display_timing
                0x0000000000000000      0x2d4 lib/built-in.o
 .text.fdtdec_setup_memory_size
                0x0000000000000000       0x64 lib/built-in.o
 .text.fdtdec_setup_memory_banksize
                0x0000000000000000       0xd8 lib/built-in.o
 .text.print_freq
                0x0000000000000000      0x1b0 lib/built-in.o
 .text.div_s64_rem
                0x0000000000000000       0xd8 lib/built-in.o
 .text.div64_u64_rem
                0x0000000000000000      0x168 lib/built-in.o
 .text.div64_u64
                0x0000000000000000      0x140 lib/built-in.o
 .text.div64_s64
                0x0000000000000000       0x5c lib/built-in.o
 .text.iter_div_u64_rem
                0x0000000000000000       0x38 lib/built-in.o
 .text.copy_from_user
                0x0000000000000000       0x10 lib/built-in.o
 .text.kmalloc  0x0000000000000000       0x38 lib/built-in.o
 .text.get_mem  0x0000000000000000       0x1c lib/built-in.o
 .text.kmem_cache_alloc
                0x0000000000000000        0xc lib/built-in.o
 .text.membuff_purge
                0x0000000000000000       0x10 lib/built-in.o
 .text.membuff_putraw
                0x0000000000000000       0xc0 lib/built-in.o
 .text.membuff_putbyte
                0x0000000000000000       0x30 lib/built-in.o
 .text.membuff_getraw
                0x0000000000000000       0x98 lib/built-in.o
 .text.membuff_getbyte
                0x0000000000000000       0x34 lib/built-in.o
 .text.membuff_peekbyte
                0x0000000000000000       0x30 lib/built-in.o
 .text.membuff_get
                0x0000000000000000       0x88 lib/built-in.o
 .text.membuff_put
                0x0000000000000000       0x6c lib/built-in.o
 .text.membuff_isempty
                0x0000000000000000       0x18 lib/built-in.o
 .text.membuff_avail
                0x0000000000000000       0x54 lib/built-in.o
 .text.membuff_size
                0x0000000000000000        0xc lib/built-in.o
 .text.membuff_makecontig
                0x0000000000000000       0x80 lib/built-in.o
 .text.membuff_free
                0x0000000000000000       0x30 lib/built-in.o
 .text.membuff_readline
                0x0000000000000000       0xb0 lib/built-in.o
 .text.membuff_extend_by
                0x0000000000000000       0xc4 lib/built-in.o
 .text.membuff_init
                0x0000000000000000       0x18 lib/built-in.o
 .text.membuff_new
                0x0000000000000000       0x38 lib/built-in.o
 .text.membuff_uninit
                0x0000000000000000       0x18 lib/built-in.o
 .text.membuff_dispose
                0x0000000000000000       0x24 lib/built-in.o
 .text.strchrnul
                0x0000000000000000       0x20 lib/built-in.o
 .text.strlcpy  0x0000000000000000       0x50 lib/built-in.o
 .text.strcspn  0x0000000000000000       0x40 lib/built-in.o
 .text.strspn   0x0000000000000000       0x3c lib/built-in.o
 .text.strpbrk  0x0000000000000000       0x54 lib/built-in.o
 .text.strtok   0x0000000000000000       0x74 lib/built-in.o
 .text.strsep   0x0000000000000000       0x38 lib/built-in.o
 .text.strswab  0x0000000000000000       0x48 lib/built-in.o
 .text.memscan  0x0000000000000000       0x28 lib/built-in.o
 .text.memchr_inv
                0x0000000000000000      0x128 lib/built-in.o
 .text.table_compute_checksum
                0x0000000000000000       0x2c lib/built-in.o
 .text.print_hex_dump
                0x0000000000000000        0x4 lib/built-in.o
 .text.print_hex_dump_bytes
                0x0000000000000000        0x4 lib/built-in.o
 .text.__assert_fail
                0x0000000000000000       0x14 lib/built-in.o
 .text.vsnprintf
                0x0000000000000000        0x4 lib/built-in.o
 .text.scnprintf
                0x0000000000000000       0x28 lib/built-in.o
 .text.print_grouped_ull
                0x0000000000000000       0x8c lib/built-in.o
 .text.str2long
                0x0000000000000000       0x3c lib/built-in.o
 .rodata.efi_guid_event_group_memory_map_change
                0x0000000000000000       0x10 lib/built-in.o
 .rodata.efi_guid_event_group_ready_to_boot
                0x0000000000000000       0x10 lib/built-in.o
 .rodata.efi_guid_event_group_virtual_address_change
                0x0000000000000000       0x10 lib/built-in.o
 .rodata.indent_string.str1.1
                0x0000000000000000       0x15 lib/built-in.o
 .rodata.fdt_create_empty_tree.str1.1
                0x0000000000000000        0x1 lib/built-in.o
 .rodata.fdt_node_check_compatible.str1.1
                0x0000000000000000        0xb lib/built-in.o
 .rodata.fdt_add_alias_regions.str1.1
                0x0000000000000000        0x8 lib/built-in.o
 .rodata.crc7_syndrome_table
                0x0000000000000000      0x100 lib/built-in.o
 .rodata.sha1_der_prefix
                0x0000000000000000        0xf lib/built-in.o
 .rodata.sha256_der_prefix
                0x0000000000000000       0x13 lib/built-in.o
 .rodata.z_errmsg
                0x0000000000000000       0x28 lib/built-in.o
 .rodata.compat_names
                0x0000000000000000       0xa8 lib/built-in.o
 .rodata.fdtdec_decode_display_timing.str1.1
                0x0000000000000000       0xca lib/built-in.o
 .rodata.fdtdec_decode_memory_region.str1.1
                0x0000000000000000       0x25 lib/built-in.o
 .rodata.fdtdec_next_alias.str1.1
                0x0000000000000000        0x7 lib/built-in.o
 .rodata.fdtdec_setup_memory_banksize.str1.1
                0x0000000000000000       0x13 lib/built-in.o
 .rodata.names.8461
                0x0000000000000000        0x3 lib/built-in.o
 .rodata.hex_asc_upper
                0x0000000000000000       0x11 lib/built-in.o
 .rodata.__assert_fail.str1.1
                0x0000000000000000       0x22 lib/built-in.o
 .rodata.print_grouped_ull.str1.1
                0x0000000000000000        0xb lib/built-in.o
 .data          0x0000000000000000        0x0 lib/built-in.o
 .data.atmel_logo_8bpp
                0x0000000000000000     0x3c76 lib/built-in.o
 .data.microchip_logo_8bpp
                0x0000000000000000     0x31b6 lib/built-in.o
 .data.cur      0x0000000000000000        0x4 lib/built-in.o
 .data.current  0x0000000000000000        0x4 lib/built-in.o
 .bss           0x0000000000000000        0x0 lib/built-in.o
 .bss.nesting_level
                0x0000000000000000        0x4 lib/built-in.o
 .bss.___strtok
                0x0000000000000000        0x4 lib/built-in.o
 .text          0x0000000000000000        0x0 net/built-in.o
 .text.add_ip_checksums
                0x0000000000000000       0x3c net/built-in.o
 .text.eth_init_state_only
                0x0000000000000000       0x38 net/built-in.o
 .text.net_get_udp_handler
                0x0000000000000000       0x10 net/built-in.o
 .text.net_set_arp_handler
                0x0000000000000000       0x20 net/built-in.o
 .text.random_port
                0x0000000000000000       0x18 net/built-in.o
 .text.vlan_to_string
                0x0000000000000000       0x44 net/built-in.o
 .text.env_get_vlan
                0x0000000000000000       0x10 net/built-in.o
 .rodata.vlan_to_string.str1.1
                0x0000000000000000        0x8 net/built-in.o
 .data          0x0000000000000000        0x0 net/built-in.o
 .data.tftp_timeout_ms
                0x0000000000000000        0x4 net/built-in.o
 .bss           0x0000000000000000        0x0 net/built-in.o
 .bss.net_busy_flag
                0x0000000000000000        0x4 net/built-in.o
 .text          0x0000000000000000        0x0 test/dm/built-in.o
 .data          0x0000000000000000        0x0 test/dm/built-in.o
 .bss           0x0000000000000000        0x0 test/dm/built-in.o
 .text          0x0000000000000000        0x0 arch/arm/lib/eabi_compat.o
 .data          0x0000000000000000        0x0 arch/arm/lib/eabi_compat.o
 .bss           0x0000000000000000        0x0 arch/arm/lib/eabi_compat.o
 .text.raise    0x0000000000000000       0x1c arch/arm/lib/eabi_compat.o
 .text.__aeabi_unwind_cpp_pr0
                0x0000000000000000        0x4 arch/arm/lib/eabi_compat.o
 .text.__aeabi_unwind_cpp_pr1
                0x0000000000000000        0x4 arch/arm/lib/eabi_compat.o
 .text.__aeabi_memcpy
                0x0000000000000000        0x4 arch/arm/lib/eabi_compat.o
 .text.__aeabi_memset
                0x0000000000000000       0x10 arch/arm/lib/eabi_compat.o
 .rodata.raise.str1.1
                0x0000000000000000       0x1b arch/arm/lib/eabi_compat.o
 .debug_info    0x0000000000000000      0xbca arch/arm/lib/eabi_compat.o
 .debug_abbrev  0x0000000000000000      0x252 arch/arm/lib/eabi_compat.o
 .debug_loc     0x0000000000000000      0x108 arch/arm/lib/eabi_compat.o
 .debug_aranges
                0x0000000000000000       0x38 arch/arm/lib/eabi_compat.o
 .debug_ranges  0x0000000000000000       0x28 arch/arm/lib/eabi_compat.o
 .debug_line    0x0000000000000000      0x1d7 arch/arm/lib/eabi_compat.o
 .debug_str     0x0000000000000000      0xa9e arch/arm/lib/eabi_compat.o
 .comment       0x0000000000000000       0x12 arch/arm/lib/eabi_compat.o
 .note.GNU-stack
                0x0000000000000000        0x0 arch/arm/lib/eabi_compat.o
 .debug_frame   0x0000000000000000       0x68 arch/arm/lib/eabi_compat.o
 .ARM.attributes
                0x0000000000000000       0x2d arch/arm/lib/eabi_compat.o
 .text          0x0000000000000000        0x0 arch/arm/lib/lib.a(lib1funcs.o)
 .data          0x0000000000000000        0x0 arch/arm/lib/lib.a(lib1funcs.o)
 .bss           0x0000000000000000        0x0 arch/arm/lib/lib.a(lib1funcs.o)
 .text.__umodsi3
                0x0000000000000000       0xa0 arch/arm/lib/lib.a(lib1funcs.o)
 .text.__modsi3
                0x0000000000000000       0xb8 arch/arm/lib/lib.a(lib1funcs.o)
 .text          0x0000000000000000        0x0 arch/arm/lib/lib.a(div0.o)
 .data          0x0000000000000000        0x0 arch/arm/lib/lib.a(div0.o)
 .bss           0x0000000000000000        0x0 arch/arm/lib/lib.a(div0.o)

Memory Configuration

Name             Origin             Length             Attributes
*default*        0x0000000000000000 0xffffffffffffffff

Linker script and memory map

Address of section .text set to 0x22000000
                0x0000000000000000                . = 0x0
                0x0000000000000000                . = ALIGN (0x4)

.text           0x0000000022000000    0x4bfcc
 *(.__image_copy_start)
 .__image_copy_start
                0x0000000022000000        0x0 arch/arm/lib/built-in.o
                0x0000000022000000                __image_copy_start
 *(.vectors)
 .vectors       0x0000000022000000      0x2e8 arch/arm/lib/built-in.o
                0x0000000022000000                _start
                0x0000000022000020                _undefined_instruction
                0x0000000022000024                _software_interrupt
                0x0000000022000028                _prefetch_abort
                0x000000002200002c                _data_abort
                0x0000000022000030                _not_used
                0x0000000022000034                _irq
                0x0000000022000038                _fiq
                0x0000000022000040                IRQ_STACK_START_IN
 arch/arm/cpu/armv7/start.o(.text*)
 .text          0x00000000220002e8       0xa4 arch/arm/cpu/armv7/start.o
                0x00000000220002e8                reset
                0x00000000220002ec                save_boot_params_ret
                0x0000000022000320                c_runtime_cpu_setup
                0x0000000022000330                save_boot_params
                0x0000000022000334                cpu_init_cp15
 *(.text*)
 .text          0x000000002200038c      0x158 arch/arm/cpu/armv7/built-in.o
                0x000000002200038c                __v7_flush_dcache_all
                0x0000000022000420                v7_flush_dcache_all
                0x0000000022000430                __v7_invalidate_dcache_all
                0x00000000220004c4                v7_invalidate_dcache_all
                0x00000000220004d4                allow_unaligned
 .text.invalidate_icache_all
                0x00000000220004e4       0x18 arch/arm/cpu/armv7/built-in.o
                0x00000000220004e4                invalidate_icache_all
 .text.v7_outer_cache_enable
                0x00000000220004fc        0x4 arch/arm/cpu/armv7/built-in.o
                0x00000000220004fc                v7_outer_cache_enable
 .text.v7_outer_cache_disable
                0x0000000022000500        0x4 arch/arm/cpu/armv7/built-in.o
                0x0000000022000500                v7_outer_cache_disable
 .text.v7_outer_cache_flush_all
                0x0000000022000504        0x4 arch/arm/cpu/armv7/built-in.o
                0x0000000022000504                v7_outer_cache_flush_all
 .text.flush_dcache_all
                0x0000000022000508       0x10 arch/arm/cpu/armv7/built-in.o
                0x0000000022000508                flush_dcache_all
 .text.v7_outer_cache_inval_all
                0x0000000022000518        0x4 arch/arm/cpu/armv7/built-in.o
                0x0000000022000518                v7_outer_cache_inval_all
 .text.invalidate_dcache_all
                0x000000002200051c       0x10 arch/arm/cpu/armv7/built-in.o
                0x000000002200051c                invalidate_dcache_all
 .text.arm_init_before_mmu
                0x000000002200052c       0x28 arch/arm/cpu/armv7/built-in.o
                0x000000002200052c                arm_init_before_mmu
 .text.v7_outer_cache_flush_range
                0x0000000022000554        0x4 arch/arm/cpu/armv7/built-in.o
                0x0000000022000554                v7_outer_cache_flush_range
 .text.flush_dcache_range
                0x0000000022000558       0x54 arch/arm/cpu/armv7/built-in.o
                0x0000000022000558                flush_dcache_range
 .text.v7_outer_cache_inval_range
                0x00000000220005ac        0x4 arch/arm/cpu/armv7/built-in.o
                0x00000000220005ac                v7_outer_cache_inval_range
 .text.invalidate_dcache_range
                0x00000000220005b0       0x64 arch/arm/cpu/armv7/built-in.o
                0x00000000220005b0                invalidate_dcache_range
 .text.cpu_cache_initialization
                0x0000000022000614        0x4 arch/arm/cpu/armv7/built-in.o
                0x0000000022000614                cpu_cache_initialization
 .text.cleanup_before_linux_select
                0x0000000022000618       0x4c arch/arm/cpu/armv7/built-in.o
                0x0000000022000618                cleanup_before_linux_select
 .text.cleanup_before_linux
                0x0000000022000664        0x8 arch/arm/cpu/armv7/built-in.o
                0x0000000022000664                cleanup_before_linux
 *fill*         0x000000002200066c       0x14 
 .text          0x0000000022000680      0x528 arch/arm/lib/built-in.o
                0x0000000022000680                _main
                0x0000000022000720                memset
                0x00000000220007fc                memcpy
 .text.setjmp   0x0000000022000ba8       0x10 arch/arm/lib/built-in.o
                0x0000000022000ba8                setjmp
 .text.longjmp  0x0000000022000bb8       0x1c arch/arm/lib/built-in.o
                0x0000000022000bb8                longjmp
 .text.relocate_vectors
                0x0000000022000bd4       0x70 arch/arm/lib/built-in.o
                0x0000000022000bd4                relocate_vectors
                0x0000000022000be0                relocate_code
 .text.arch_fixup_fdt
                0x0000000022000c44       0x34 arch/arm/lib/built-in.o
                0x0000000022000c44                arch_fixup_fdt
 .text.boot_prep_linux
                0x0000000022000c78       0x4c arch/arm/lib/built-in.o
 .text.arch_lmb_reserve
                0x0000000022000cc4       0x3c arch/arm/lib/built-in.o
                0x0000000022000cc4                arch_lmb_reserve
 .text.board_quiesce_devices
                0x0000000022000d00        0x4 arch/arm/lib/built-in.o
                0x0000000022000d00                board_quiesce_devices
 .text.boot_jump_linux
                0x0000000022000d04       0xd0 arch/arm/lib/built-in.o
 .text.do_bootm_linux
                0x0000000022000dd4       0x58 arch/arm/lib/built-in.o
                0x0000000022000dd4                do_bootm_linux
 .text.boot_prep_vxworks
                0x0000000022000e2c       0x50 arch/arm/lib/built-in.o
                0x0000000022000e2c                boot_prep_vxworks
 .text.boot_jump_vxworks
                0x0000000022000e7c        0xc arch/arm/lib/built-in.o
                0x0000000022000e7c                boot_jump_vxworks
 .text.bootz_setup
                0x0000000022000e88       0x7c arch/arm/lib/built-in.o
                0x0000000022000e88                bootz_setup
 .text.arch_reserve_stacks
                0x0000000022000f04       0x1c arch/arm/lib/built-in.o
                0x0000000022000f04                arch_reserve_stacks
 .text.interrupt_init
                0x0000000022000f20       0x1c arch/arm/lib/built-in.o
                0x0000000022000f20                interrupt_init
 .text.enable_interrupts
                0x0000000022000f3c        0x4 arch/arm/lib/built-in.o
                0x0000000022000f3c                enable_interrupts
 .text.disable_interrupts
                0x0000000022000f40        0x8 arch/arm/lib/built-in.o
                0x0000000022000f40                disable_interrupts
 .text.bad_mode
                0x0000000022000f48       0x10 arch/arm/lib/built-in.o
                0x0000000022000f48                bad_mode
 .text.show_regs
                0x0000000022000f58      0x1cc arch/arm/lib/built-in.o
                0x0000000022000f58                show_regs
 .text.do_undefined_instruction
                0x0000000022001124       0x38 arch/arm/lib/built-in.o
                0x0000000022001124                do_undefined_instruction
 .text.do_software_interrupt
                0x000000002200115c       0x38 arch/arm/lib/built-in.o
                0x000000002200115c                do_software_interrupt
 .text.do_prefetch_abort
                0x0000000022001194       0x38 arch/arm/lib/built-in.o
                0x0000000022001194                do_prefetch_abort
 .text.do_data_abort
                0x00000000220011cc       0x38 arch/arm/lib/built-in.o
                0x00000000220011cc                do_data_abort
 .text.do_not_used
                0x0000000022001204       0x38 arch/arm/lib/built-in.o
                0x0000000022001204                do_not_used
 .text.do_fiq   0x000000002200123c       0x38 arch/arm/lib/built-in.o
                0x000000002200123c                do_fiq
 .text.do_irq   0x0000000022001274       0x38 arch/arm/lib/built-in.o
                0x0000000022001274                do_irq
 .text.reset_misc
                0x00000000220012ac        0x4 arch/arm/lib/built-in.o
                0x00000000220012ac                reset_misc
 .text.do_reset
                0x00000000220012b0       0x30 arch/arm/lib/built-in.o
                0x00000000220012b0                do_reset
 .text.flush_cache
                0x00000000220012e0        0x8 arch/arm/lib/built-in.o
                0x00000000220012e0                flush_cache
 .text.check_cache_range
                0x00000000220012e8       0x34 arch/arm/lib/built-in.o
                0x00000000220012e8                check_cache_range
 .text.arm_init_domains
                0x000000002200131c        0x4 arch/arm/lib/built-in.o
                0x000000002200131c                arm_init_domains
 .text.set_section_dcache
                0x0000000022001320       0x14 arch/arm/lib/built-in.o
                0x0000000022001320                set_section_dcache
 .text.dram_bank_mmu_setup
                0x0000000022001334       0x40 arch/arm/lib/built-in.o
                0x0000000022001334                dram_bank_mmu_setup
 .text.icache_enable
                0x0000000022001374       0x14 arch/arm/lib/built-in.o
                0x0000000022001374                icache_enable
 .text.icache_disable
                0x0000000022001388       0x18 arch/arm/lib/built-in.o
                0x0000000022001388                icache_disable
 .text.dcache_enable
                0x00000000220013a0       0x80 arch/arm/lib/built-in.o
                0x00000000220013a0                dcache_enable
 .text.dcache_disable
                0x0000000022001420       0x28 arch/arm/lib/built-in.o
                0x0000000022001420                dcache_disable
 .text.dcache_status
                0x0000000022001448        0xc arch/arm/lib/built-in.o
                0x0000000022001448                dcache_status
 .text.at91_periph_clk_enable
                0x0000000022001454       0x3c arch/arm/mach-at91/built-in.o
                0x0000000022001454                at91_periph_clk_enable
 .text._cpu_is_sama5d2
                0x0000000022001490       0x24 arch/arm/mach-at91/built-in.o
                0x0000000022001490                _cpu_is_sama5d2
 .text.get_cpu_name
                0x00000000220014b4      0x174 arch/arm/mach-at91/built-in.o
                0x00000000220014b4                get_cpu_name
 .text.at91_clock_init
                0x0000000022001628       0xf0 arch/arm/mach-at91/built-in.o
                0x0000000022001628                at91_clock_init
 .text.arch_cpu_init
                0x0000000022001718        0xc arch/arm/mach-at91/built-in.o
                0x0000000022001718                arch_cpu_init
 .text.arch_preboot_os
                0x0000000022001724       0x24 arch/arm/mach-at91/built-in.o
                0x0000000022001724                arch_preboot_os
 .text.print_cpuinfo
                0x0000000022001748       0x7c arch/arm/mach-at91/built-in.o
                0x0000000022001748                print_cpuinfo
 .text.enable_caches
                0x00000000220017c4       0x10 arch/arm/mach-at91/built-in.o
                0x00000000220017c4                enable_caches
 .text.get_chip_id
                0x00000000220017d4       0x18 arch/arm/mach-at91/built-in.o
                0x00000000220017d4                get_chip_id
 .text.get_extension_chip_id
                0x00000000220017ec       0x14 arch/arm/mach-at91/built-in.o
                0x00000000220017ec                get_extension_chip_id
 .text.reset_cpu
                0x0000000022001800       0x1c arch/arm/mach-at91/built-in.o
                0x0000000022001800                reset_cpu
 .text.at91_pda_detect
                0x000000002200181c       0xe4 board/atmel/common/built-in.o
                0x000000002200181c                at91_pda_detect
 .text.at91_set_ethaddr
                0x0000000022001900       0xa8 board/atmel/common/built-in.o
                0x0000000022001900                at91_set_ethaddr
 .text.board_late_init
                0x00000000220019a8       0x10 board/atmel/rugged_board_a5d2x/built-in.o
                0x00000000220019a8                board_late_init
 .text.board_debug_uart_init
                0x00000000220019b8       0x30 board/atmel/rugged_board_a5d2x/built-in.o
                0x00000000220019b8                board_debug_uart_init
 .text.board_early_init_f
                0x00000000220019e8       0x10 board/atmel/rugged_board_a5d2x/built-in.o
                0x00000000220019e8                board_early_init_f
 .text.board_init
                0x00000000220019f8       0x2c board/atmel/rugged_board_a5d2x/built-in.o
                0x00000000220019f8                board_init
 .text.dram_init
                0x0000000022001a24       0x1c board/atmel/rugged_board_a5d2x/built-in.o
                0x0000000022001a24                dram_init
 .text.misc_init_r
                0x0000000022001a40       0x14 board/atmel/rugged_board_a5d2x/built-in.o
                0x0000000022001a40                misc_init_r
 .text.do_go_exec
                0x0000000022001a54       0x10 cmd/built-in.o
                0x0000000022001a54                do_go_exec
 .text.do_go    0x0000000022001a64       0x6c cmd/built-in.o
 .text.do_bootm
                0x0000000022001ad0      0x108 cmd/built-in.o
                0x0000000022001ad0                do_bootm
 .text.do_bootd
                0x0000000022001bd8       0x20 cmd/built-in.o
                0x0000000022001bd8                do_bootd
 .text.image_info
                0x0000000022001bf8      0x11c cmd/built-in.o
 .text.do_iminfo
                0x0000000022001d14       0x54 cmd/built-in.o
 .text.bootm_maybe_autostart
                0x0000000022001d68       0x78 cmd/built-in.o
                0x0000000022001d68                bootm_maybe_autostart
 .text.do_help  0x0000000022001de0       0x44 cmd/built-in.o
 .text.do_version
                0x0000000022001e24       0x40 cmd/built-in.o
 .text.blk_common_cmd
                0x0000000022001e64      0x310 cmd/built-in.o
                0x0000000022001e64                blk_common_cmd
 .text.source   0x0000000022002174      0x1c4 cmd/built-in.o
                0x0000000022002174                source
 .text.do_source
                0x0000000022002338       0x74 cmd/built-in.o
 .text.print_num
                0x00000000220023ac       0x14 cmd/built-in.o
 .text.do_bdinfo
                0x00000000220023c0       0xfc cmd/built-in.o
 .text.do_blkcache
                0x00000000220024bc       0x68 cmd/built-in.o
 .text.blkc_configure
                0x0000000022002524       0x68 cmd/built-in.o
 .text.blkc_show
                0x000000002200258c       0x40 cmd/built-in.o
 .text.efi_install_fdt
                0x00000000220025cc      0x248 cmd/built-in.o
 .text.do_bootefi_exec
                0x0000000022002814      0x290 cmd/built-in.o
 .text.efi_init_obj_list
                0x0000000022002aa4       0x7c cmd/built-in.o
                0x0000000022002aa4                efi_init_obj_list
 .text.do_bootefi
                0x0000000022002b20      0x168 cmd/built-in.o
 .text.efi_set_bootdev
                0x0000000022002c88       0xf4 cmd/built-in.o
                0x0000000022002c88                efi_set_bootdev
 .text.do_bootz
                0x0000000022002d7c       0xfc cmd/built-in.o
                0x0000000022002d7c                do_bootz
 .text.do_coninfo
                0x0000000022002e78       0xb0 cmd/built-in.o
 .text.do_echo  0x0000000022002f28       0xb4 cmd/built-in.o
 .text.load_elf_image_phdr
                0x0000000022002fdc      0x118 cmd/built-in.o
 .text.valid_elf_image
                0x00000000220030f4       0x4c cmd/built-in.o
                0x00000000220030f4                valid_elf_image
 .text.do_bootelf
                0x0000000022003140      0x1cc cmd/built-in.o
                0x0000000022003140                do_bootelf
 .text.do_bootvx
                0x000000002200330c      0x314 cmd/built-in.o
                0x000000002200330c                do_bootvx
 .text.do_exit  0x0000000022003620       0x48 cmd/built-in.o
 .text.do_ext4_size
                0x0000000022003668       0x18 cmd/built-in.o
                0x0000000022003668                do_ext4_size
 .text.do_ext4_load
                0x0000000022003680       0x18 cmd/built-in.o
                0x0000000022003680                do_ext4_load
 .text.do_ext4_ls
                0x0000000022003698       0x18 cmd/built-in.o
                0x0000000022003698                do_ext4_ls
 .text.do_fat_size
                0x00000000220036b0       0x18 cmd/built-in.o
                0x00000000220036b0                do_fat_size
 .text.do_fat_fsload
                0x00000000220036c8       0x18 cmd/built-in.o
                0x00000000220036c8                do_fat_fsload
 .text.do_fat_ls
                0x00000000220036e0       0x18 cmd/built-in.o
 .text.do_fat_fswrite
                0x00000000220036f8      0x124 cmd/built-in.o
 .text.do_fat_fsinfo
                0x000000002200381c       0x8c cmd/built-in.o
 .text.fdt_valid
                0x00000000220038a8       0xbc cmd/built-in.o
 .text.is_printable_string
                0x0000000022003964       0x88 cmd/built-in.o
 .text.print_data
                0x00000000220039ec      0x170 cmd/built-in.o
 .text.set_working_fdt_addr
                0x0000000022003b5c       0x1c cmd/built-in.o
                0x0000000022003b5c                set_working_fdt_addr
 .text.do_fdt   0x0000000022003b78      0xf90 cmd/built-in.o
 .text.do_i2c   0x0000000022004b08       0x68 cmd/built-in.o
 .text.i2c_get_cur_bus
                0x0000000022004b70       0x38 cmd/built-in.o
 .text.do_i2c_bus_speed
                0x0000000022004ba8       0x98 cmd/built-in.o
 .text.do_i2c_reset
                0x0000000022004c40       0x3c cmd/built-in.o
 .text.i2c_get_cur_bus_chip
                0x0000000022004c7c       0x38 cmd/built-in.o
 .text.do_i2c_olen
                0x0000000022004cb4       0xb4 cmd/built-in.o
 .text.do_i2c_flags
                0x0000000022004d68       0xb8 cmd/built-in.o
 .text.do_i2c_probe
                0x0000000022004e20       0xc4 cmd/built-in.o
 .text.do_i2c_bus_num
                0x0000000022004ee4       0xa4 cmd/built-in.o
 .text.show_bus
                0x0000000022004f88       0x9c cmd/built-in.o
 .text.do_i2c_show_bus
                0x0000000022005024       0xb0 cmd/built-in.o
 .text.get_alen.constprop.4
                0x00000000220050d4       0x3c cmd/built-in.o
 .text.do_i2c_crc
                0x0000000022005110      0x170 cmd/built-in.o
 .text.mod_i2c_mem.isra.1
                0x0000000022005280      0x228 cmd/built-in.o
 .text.do_i2c_nm
                0x00000000220054a8        0x8 cmd/built-in.o
 .text.do_i2c_mm
                0x00000000220054b0        0x8 cmd/built-in.o
 .text.do_i2c_md
                0x00000000220054b8      0x220 cmd/built-in.o
 .text.do_i2c_read
                0x00000000220056d8       0xf4 cmd/built-in.o
 .text.do_i2c_mw
                0x00000000220057cc      0x134 cmd/built-in.o
 .text.do_i2c_write
                0x0000000022005900      0x1a0 cmd/built-in.o
 .text.do_i2c_loop
                0x0000000022005aa0      0x144 cmd/built-in.o
 .text.evalexp  0x0000000022005be4       0x7c cmd/built-in.o
 .text.evalstr  0x0000000022005c60       0x64 cmd/built-in.o
 .text.binary_test
                0x0000000022005cc4      0x1c0 cmd/built-in.o
 .text.do_itest
                0x0000000022005e84       0x88 cmd/built-in.o
 .text.bin_data_init
                0x0000000022005f0c       0x2c cmd/built-in.o
 .text.k_data_save
                0x0000000022005f38       0x4c cmd/built-in.o
 .text.k_data_restore
                0x0000000022005f84       0x4c cmd/built-in.o
 .text.load_serial_ymodem
                0x0000000022005fd0       0xcc cmd/built-in.o
 .text.getcxmodem
                0x000000002200609c       0x20 cmd/built-in.o
 .text.bin_data_char
                0x00000000220060bc       0x2c cmd/built-in.o
 .text.chk1.constprop.2
                0x00000000220060e8       0x30 cmd/built-in.o
 .text.s1_sendpacket.constprop.3
                0x0000000022006118       0x4c cmd/built-in.o
 .text.do_load_serial_bin
                0x0000000022006164      0x790 cmd/built-in.o
 .text.do_mem_mw
                0x00000000220068f4       0xc0 cmd/built-in.o
 .text.do_mem_loop
                0x00000000220069b4       0xec cmd/built-in.o
 .text.do_mem_md
                0x0000000022006aa0       0xe8 cmd/built-in.o
 .text.do_mem_cmp
                0x0000000022006b88      0x154 cmd/built-in.o
 .text.do_mem_base
                0x0000000022006cdc       0x40 cmd/built-in.o
 .text.do_mem_cp
                0x0000000022006d1c       0xa8 cmd/built-in.o
 .text.do_mem_crc
                0x0000000022006dc4       0x48 cmd/built-in.o
 .text.mod_mem.isra.0
                0x0000000022006e0c      0x170 cmd/built-in.o
 .text.do_mem_mm
                0x0000000022006f7c        0x8 cmd/built-in.o
 .text.do_mem_nm
                0x0000000022006f84        0x8 cmd/built-in.o
 .text.do_sleep
                0x0000000022006f8c       0xcc cmd/built-in.o
 .text.do_mmcops
                0x0000000022007058       0xb8 cmd/built-in.o
 .text.init_mmc_device
                0x0000000022007110       0x50 cmd/built-in.o
 .text.do_mmc_rescan
                0x0000000022007160       0x24 cmd/built-in.o
 .text.do_mmc_hwpartition
                0x0000000022007184      0x50c cmd/built-in.o
 .text.do_mmc_list
                0x0000000022007690       0x14 cmd/built-in.o
 .text.do_mmc_dev
                0x00000000220076a4      0x134 cmd/built-in.o
 .text.do_mmc_erase
                0x00000000220077d8       0xe8 cmd/built-in.o
 .text.do_mmc_write
                0x00000000220078c0      0x100 cmd/built-in.o
 .text.do_mmc_read
                0x00000000220079c0       0xe0 cmd/built-in.o
 .text.do_mmcinfo
                0x0000000022007aa0      0x3a4 cmd/built-in.o
 .text.do_mmc_setdsr
                0x0000000022007e44       0xa8 cmd/built-in.o
 .text.do_mmc_part
                0x0000000022007eec       0x60 cmd/built-in.o
 .text.netboot_common
                0x0000000022007f4c      0x2a8 cmd/built-in.o
 .text.do_bootp
                0x00000000220081f4        0xc cmd/built-in.o
 .text.do_dhcp  0x0000000022008200        0xc cmd/built-in.o
 .text.do_nfs   0x000000002200820c        0xc cmd/built-in.o
 .text.do_tftpb
                0x0000000022008218       0x40 cmd/built-in.o
                0x0000000022008218                do_tftpb
 .text.do_ping  0x0000000022008258       0x78 cmd/built-in.o
 .text.bytes_per_second
                0x00000000220082d0       0x50 cmd/built-in.o
 .text.do_spi_flash
                0x0000000022008320      0x874 cmd/built-in.o
 .text.substitute
                0x0000000022008b94       0xf0 cmd/built-in.o
 .text.get_arg  0x0000000022008c84       0x58 cmd/built-in.o
 .text.regex_sub.part.1
                0x0000000022008cdc      0x47c cmd/built-in.o
 .text.do_setexpr
                0x0000000022009158      0x194 cmd/built-in.o
 .text.do_false
                0x00000000220092ec        0x8 cmd/built-in.o
 .text.do_true  0x00000000220092f4        0x8 cmd/built-in.o
 .text.do_test  0x00000000220092fc      0x328 cmd/built-in.o
 .text.usb_get_class_desc
                0x0000000022009624       0xbc cmd/built-in.o
 .text.usb_display_class_sub
                0x00000000220096e0      0x170 cmd/built-in.o
 .text.usb_display_desc
                0x0000000022009850      0x150 cmd/built-in.o
 .text.usb_show_tree_graph
                0x00000000220099a0      0x228 cmd/built-in.o
 .text.usb_show_subtree
                0x0000000022009bc8       0x30 cmd/built-in.o
 .text.usb_for_each_root_dev
                0x0000000022009bf8       0x6c cmd/built-in.o
 .text.usb_display_string
                0x0000000022009c64       0x44 cmd/built-in.o
 .text.usb_display_config
                0x0000000022009ca8      0x210 cmd/built-in.o
 .text.usb_show_info
                0x0000000022009eb8       0x74 cmd/built-in.o
 .text.usb_find_device
                0x0000000022009f2c       0xb4 cmd/built-in.o
 .text.do_usbboot
                0x0000000022009fe0        0xc cmd/built-in.o
 .text.do_usb_start
                0x0000000022009fec       0x30 cmd/built-in.o
 .text.usb_show_tree
                0x000000002200a01c        0xc cmd/built-in.o
                0x000000002200a01c                usb_show_tree
 .text.do_usb   0x000000002200a028      0x3e0 cmd/built-in.o
 .text.common_diskboot
                0x000000002200a408      0x294 cmd/built-in.o
                0x000000002200a408                common_diskboot
 .text.do_imgextract
                0x000000002200a69c      0x3c0 cmd/built-in.o
 .text.w1_read  0x000000002200aa5c      0x1f4 cmd/built-in.o
 .text.do_w1    0x000000002200ac50      0x154 cmd/built-in.o
                0x000000002200ac50                do_w1
 .text.do_env_delete
                0x000000002200ada4       0xa0 cmd/built-in.o
 .text.do_env_exists
                0x000000002200ae44       0x64 cmd/built-in.o
 .text.do_env_save
                0x000000002200aea8       0x14 cmd/built-in.o
 .text.do_env   0x000000002200aebc       0x68 cmd/built-in.o
 .text.env_print
                0x000000002200af24       0xc4 cmd/built-in.o
 .text.do_env_print
                0x000000002200afe8       0xc0 cmd/built-in.o
 .text.do_env_import
                0x000000002200b0a8      0x264 cmd/built-in.o
 .text.do_env_default
                0x000000002200b30c       0x9c cmd/built-in.o
 .text._do_env_set.isra.0
                0x000000002200b3a8      0x1b4 cmd/built-in.o
 .text.do_env_set
                0x000000002200b55c       0x20 cmd/built-in.o
 .text.get_env_id
                0x000000002200b57c       0x10 cmd/built-in.o
                0x000000002200b57c                get_env_id
 .text.env_set  0x000000002200b58c       0x60 cmd/built-in.o
                0x000000002200b58c                env_set
 .text.env_set_ulong
                0x000000002200b5ec       0x20 cmd/built-in.o
                0x000000002200b5ec                env_set_ulong
 .text.env_set_hex
                0x000000002200b60c       0x34 cmd/built-in.o
                0x000000002200b60c                env_set_hex
 .text.do_env_export
                0x000000002200b640      0x220 cmd/built-in.o
 .text.eth_parse_enetaddr
                0x000000002200b860       0x5c cmd/built-in.o
                0x000000002200b860                eth_parse_enetaddr
 .text.envmatch
                0x000000002200b8bc       0x6c cmd/built-in.o
                0x000000002200b8bc                envmatch
 .text.env_get_f
                0x000000002200b928       0xdc cmd/built-in.o
                0x000000002200b928                env_get_f
 .text.env_get  0x000000002200ba04       0x78 cmd/built-in.o
                0x000000002200ba04                env_get
 .text.env_get_hex
                0x000000002200ba7c       0x3c cmd/built-in.o
                0x000000002200ba7c                env_get_hex
 .text.eth_env_get_enetaddr
                0x000000002200bab8       0x5c cmd/built-in.o
                0x000000002200bab8                eth_env_get_enetaddr
 .text.eth_env_set_enetaddr
                0x000000002200bb14       0x4c cmd/built-in.o
                0x000000002200bb14                eth_env_set_enetaddr
 .text.env_get_ulong
                0x000000002200bb60       0x30 cmd/built-in.o
                0x000000002200bb60                env_get_ulong
 .text.do_env_edit.part.3
                0x000000002200bb90       0xa4 cmd/built-in.o
 .text.do_env_edit
                0x000000002200bc34       0x2c cmd/built-in.o
 .text.board_init_f_alloc_reserve
                0x000000002200bc60       0x10 common/built-in.o
                0x000000002200bc60                board_init_f_alloc_reserve
 .text.board_init_f_init_reserve
                0x000000002200bc70       0x20 common/built-in.o
                0x000000002200bc70                board_init_f_init_reserve
 .text.show_boot_progress
                0x000000002200bc90        0x8 common/built-in.o
                0x000000002200bc90                show_boot_progress
 .text.main_loop
                0x000000002200bc98       0x4c common/built-in.o
                0x000000002200bc98                main_loop
 .text.mdelay   0x000000002200bce4       0x1c common/built-in.o
 .text.dummy    0x000000002200bd00        0x4 common/built-in.o
 .text.get_version
                0x000000002200bd04        0x8 common/built-in.o
                0x000000002200bd04                get_version
 .text.jumptable_init
                0x000000002200bd0c      0x1e0 common/built-in.o
                0x000000002200bd0c                jumptable_init
 .text.hash_finish_crc32
                0x000000002200beec       0x30 common/built-in.o
 .text.hash_update_crc32
                0x000000002200bf1c       0x24 common/built-in.o
 .text.hash_init_crc32
                0x000000002200bf40       0x24 common/built-in.o
 .text.hash_finish_sha256
                0x000000002200bf64       0x38 common/built-in.o
 .text.hash_update_sha256
                0x000000002200bf9c       0x1c common/built-in.o
 .text.hash_init_sha256
                0x000000002200bfb8       0x24 common/built-in.o
 .text.hash_finish_sha1
                0x000000002200bfdc       0x38 common/built-in.o
 .text.hash_update_sha1
                0x000000002200c014       0x1c common/built-in.o
 .text.hash_init_sha1
                0x000000002200c030       0x24 common/built-in.o
 .text.hash_lookup_algo
                0x000000002200c054       0x54 common/built-in.o
                0x000000002200c054                hash_lookup_algo
 .text.hash_command
                0x000000002200c0a8      0x1cc common/built-in.o
                0x000000002200c0a8                hash_command
 .text.b_reset  0x000000002200c274       0x1c common/built-in.o
 .text.static_get
                0x000000002200c290       0x1c common/built-in.o
 .text.static_peek
                0x000000002200c2ac        0xc common/built-in.o
 .text.mapset   0x000000002200c2b8       0x20 common/built-in.o
 .text.syntax_err
                0x000000002200c2d8        0xc common/built-in.o
 .text.free_pipe_list
                0x000000002200c2e4       0xe4 common/built-in.o
 .text.xmalloc  0x000000002200c3c8       0x20 common/built-in.o
 .text.new_pipe
                0x000000002200c3e8       0x28 common/built-in.o
 .text.xrealloc
                0x000000002200c410       0x20 common/built-in.o
 .text.done_command
                0x000000002200c430       0x88 common/built-in.o
 .text.done_pipe
                0x000000002200c4b8       0x48 common/built-in.o
 .text.done_word
                0x000000002200c500      0x2cc common/built-in.o
 .text.is_assignment
                0x000000002200c7cc       0x5c common/built-in.o
 .text.file_get
                0x000000002200c828      0x1ec common/built-in.o
 .text.do_showvar
                0x000000002200ca14      0x100 common/built-in.o
 .text.b_addchr
                0x000000002200cb14       0x80 common/built-in.o
 .text.b_addqchr
                0x000000002200cb94       0x50 common/built-in.o
 .text.file_peek
                0x000000002200cbe4        0xc common/built-in.o
 .text.get_local_var
                0x000000002200cbf0       0x94 common/built-in.o
                0x000000002200cbf0                get_local_var
 .text.set_local_var
                0x000000002200cc84      0x1a8 common/built-in.o
                0x000000002200cc84                set_local_var
 .text.insert_var_value_sub
                0x000000002200ce2c      0x2b8 common/built-in.o
 .text.parse_string_outer
                0x000000002200d0e4       0xe8 common/built-in.o
                0x000000002200d0e4                parse_string_outer
 .text.run_list_real
                0x000000002200d1cc      0x7b0 common/built-in.o
 .text.parse_stream_outer
                0x000000002200d97c      0x6c0 common/built-in.o
 .text.parse_file_outer
                0x000000002200e03c       0x44 common/built-in.o
                0x000000002200e03c                parse_file_outer
 .text.u_boot_hush_start
                0x000000002200e080       0x54 common/built-in.o
                0x000000002200e080                u_boot_hush_start
 .text.bootdelay_process
                0x000000002200e0d4       0xbc common/built-in.o
                0x000000002200e0d4                bootdelay_process
 .text.autoboot_command
                0x000000002200e190       0xf4 common/built-in.o
                0x000000002200e190                autoboot_command
 .text.log_init
                0x000000002200e284       0x10 common/built-in.o
 .text.display_text_info
                0x000000002200e294        0x8 common/built-in.o
 .text.setup_mon_len
                0x000000002200e29c       0x20 common/built-in.o
 .text.reserve_round_4k
                0x000000002200e2bc       0x18 common/built-in.o
 .text.reserve_mmu
                0x000000002200e2d4       0x38 common/built-in.o
                0x000000002200e2d4                reserve_mmu
 .text.reserve_uboot
                0x000000002200e30c       0x40 common/built-in.o
 .text.reserve_malloc
                0x000000002200e34c       0x14 common/built-in.o
 .text.reserve_global_data
                0x000000002200e360       0x1c common/built-in.o
 .text.reserve_fdt
                0x000000002200e37c       0x4c common/built-in.o
 .text.dram_init_banksize
                0x000000002200e3c8       0x24 common/built-in.o
                0x000000002200e3c8                dram_init_banksize
 .text.setup_reloc
                0x000000002200e3ec       0x3c common/built-in.o
 .text.reloc_fdt
                0x000000002200e428       0x44 common/built-in.o
 .text.reserve_board
                0x000000002200e46c       0x40 common/built-in.o
 .text.announce_dram_init
                0x000000002200e4ac       0x18 common/built-in.o
 .text.init_baud_rate
                0x000000002200e4c4       0x2c common/built-in.o
 .text.initf_dm
                0x000000002200e4f0        0x8 common/built-in.o
 .text.initf_bootstage
                0x000000002200e4f8       0x14 common/built-in.o
 .text.arch_cpu_init_dm
                0x000000002200e50c        0x8 common/built-in.o
                0x000000002200e50c                arch_cpu_init_dm
 .text.mach_cpu_init
                0x000000002200e514        0x8 common/built-in.o
                0x000000002200e514                mach_cpu_init
 .text.reserve_video
                0x000000002200e51c        0x8 common/built-in.o
 .text.reserve_trace
                0x000000002200e524        0x8 common/built-in.o
 .text.setup_machine
                0x000000002200e52c        0x8 common/built-in.o
 .text.reserve_bootstage
                0x000000002200e534        0x8 common/built-in.o
 .text.display_new_sp
                0x000000002200e53c        0x8 common/built-in.o
 .text.reloc_bootstage
                0x000000002200e544        0x8 common/built-in.o
 .text.initf_console_record
                0x000000002200e54c        0x8 common/built-in.o
 .text.reserve_arch
                0x000000002200e554        0x8 common/built-in.o
                0x000000002200e554                reserve_arch
 .text.coloured_LED_init
                0x000000002200e55c        0x4 common/built-in.o
                0x000000002200e55c                coloured_LED_init
 .text.red_led_on
                0x000000002200e560        0x4 common/built-in.o
                0x000000002200e560                red_led_on
 .text.board_add_ram_info
                0x000000002200e564        0x4 common/built-in.o
                0x000000002200e564                board_add_ram_info
 .text.show_dram_config
                0x000000002200e568       0x38 common/built-in.o
 .text.board_get_usable_ram_top
                0x000000002200e5a0       0x14 common/built-in.o
                0x000000002200e5a0                board_get_usable_ram_top
 .text.setup_dest_addr
                0x000000002200e5b4       0x3c common/built-in.o
 .text.reserve_stacks
                0x000000002200e5f0       0x1c common/built-in.o
 .text.board_init_f
                0x000000002200e60c       0x28 common/built-in.o
                0x000000002200e60c                board_init_f
 .text.initr_trace
                0x000000002200e634        0x8 common/built-in.o
 .text.initr_reloc
                0x000000002200e63c       0x18 common/built-in.o
 .text.run_main_loop
                0x000000002200e654        0xc common/built-in.o
 .text.initr_net
                0x000000002200e660       0x1c common/built-in.o
 .text.initr_ethaddr
                0x000000002200e67c       0x20 common/built-in.o
 .text.initr_enable_interrupts
                0x000000002200e69c       0x10 common/built-in.o
 .text.initr_jumptable
                0x000000002200e6ac       0x10 common/built-in.o
 .text.initr_env
                0x000000002200e6bc       0x64 common/built-in.o
 .text.initr_mmc
                0x000000002200e720       0x20 common/built-in.o
 .text.initr_serial
                0x000000002200e740       0x10 common/built-in.o
 .text.initr_dm
                0x000000002200e750       0x18 common/built-in.o
 .text.initr_bootstage
                0x000000002200e768       0x14 common/built-in.o
 .text.initr_malloc
                0x000000002200e77c       0x1c common/built-in.o
 .text.initr_reloc_global_data
                0x000000002200e798       0x38 common/built-in.o
 .text.initr_caches
                0x000000002200e7d0       0x10 common/built-in.o
 .text.bootstage_relocate
                0x000000002200e7e0        0x8 common/built-in.o
 .text.initr_barrier
                0x000000002200e7e8        0x8 common/built-in.o
 .text.initr_console_record
                0x000000002200e7f0        0x8 common/built-in.o
 .text.power_init_board
                0x000000002200e7f8        0x8 common/built-in.o
                0x000000002200e7f8                power_init_board
 .text.initr_announce
                0x000000002200e800        0x8 common/built-in.o
 .text.cpu_secondary_init_r
                0x000000002200e808        0x4 common/built-in.o
                0x000000002200e808                cpu_secondary_init_r
 .text.initr_secondary_cpu
                0x000000002200e80c       0x10 common/built-in.o
 .text.board_init_r
                0x000000002200e81c       0x20 common/built-in.o
                0x000000002200e81c                board_init_r
 .text.bootm_find_images
                0x000000002200e83c       0xd4 common/built-in.o
                0x000000002200e83c                bootm_find_images
 .text.bootm_decomp_image
                0x000000002200e910      0x140 common/built-in.o
                0x000000002200e910                bootm_decomp_image
 .text.bootm_disable_interrupts
                0x000000002200ea50       0x18 common/built-in.o
                0x000000002200ea50                bootm_disable_interrupts
 .text.do_bootm_states
                0x000000002200ea68      0x8ac common/built-in.o
                0x000000002200ea68                do_bootm_states
 .text.copy_args
                0x000000002200f314       0x4c common/built-in.o
 .text.do_bootm_rtems
                0x000000002200f360       0x54 common/built-in.o
 .text.do_bootm_plan9
                0x000000002200f3b4       0xb8 common/built-in.o
 .text.do_bootm_standalone
                0x000000002200f46c       0x64 common/built-in.o
 .text.do_bootm_qnxelf
                0x000000002200f4d0       0x8c common/built-in.o
 .text.do_bootm_netbsd
                0x000000002200f55c      0x104 common/built-in.o
 .text.do_bootvx_fdt
                0x000000002200f660      0x114 common/built-in.o
                0x000000002200f660                do_bootvx_fdt
 .text.do_bootm_vxworks
                0x000000002200f774       0x38 common/built-in.o
 .text.boot_selected_os
                0x000000002200f7ac       0x58 common/built-in.o
                0x000000002200f7ac                boot_selected_os
 .text.bootm_os_get_boot_func
                0x000000002200f804       0x10 common/built-in.o
                0x000000002200f804                bootm_os_get_boot_func
 .text.of_bus_default_map
                0x000000002200f814       0xdc common/built-in.o
 .text.of_bus_default_translate
                0x000000002200f8f0       0xa4 common/built-in.o
 .text.fdt_support_default_count_cells
                0x000000002200f994       0x58 common/built-in.o
                0x000000002200f994                fdt_support_default_count_cells
 .text.fdt_find_and_setprop
                0x000000002200f9ec       0x70 common/built-in.o
                0x000000002200f9ec                fdt_find_and_setprop
 .text.fdt_find_or_add_subnode
                0x000000002200fa5c       0x60 common/built-in.o
                0x000000002200fa5c                fdt_find_or_add_subnode
 .text.fdt_root
                0x000000002200fabc       0x90 common/built-in.o
                0x000000002200fabc                fdt_root
 .text.fdt_initrd
                0x000000002200fb4c      0x1d0 common/built-in.o
                0x000000002200fb4c                fdt_initrd
 .text.fdt_chosen
                0x000000002200fd1c       0xa8 common/built-in.o
                0x000000002200fd1c                fdt_chosen
 .text.do_fixup_by_path
                0x000000002200fdc4       0x54 common/built-in.o
                0x000000002200fdc4                do_fixup_by_path
 .text.fdt_fixup_memory_banks
                0x000000002200fe18      0x200 common/built-in.o
                0x000000002200fe18                fdt_fixup_memory_banks
 .text.fdt_fixup_memory
                0x0000000022010018       0x20 common/built-in.o
                0x0000000022010018                fdt_fixup_memory
 .text.fdt_fixup_ethernet
                0x0000000022010038      0x1b8 common/built-in.o
                0x0000000022010038                fdt_fixup_ethernet
 .text.fdt_shrink_to_minimum
                0x00000000220101f0       0xd4 common/built-in.o
                0x00000000220101f0                fdt_shrink_to_minimum
 .text.fdt_translate_address
                0x00000000220102c4      0x294 common/built-in.o
                0x00000000220102c4                fdt_translate_address
 .text.fdt_overlay_apply_verbose
                0x0000000022010558       0x6c common/built-in.o
                0x0000000022010558                fdt_overlay_apply_verbose
 .text.miiphy_get_dev_by_name
                0x00000000220105c4       0x58 common/built-in.o
                0x00000000220105c4                miiphy_get_dev_by_name
 .text.miiphy_init
                0x000000002201061c       0x24 common/built-in.o
                0x000000002201061c                miiphy_init
 .text.mdio_alloc
                0x0000000022010640       0x30 common/built-in.o
                0x0000000022010640                mdio_alloc
 .text.mdio_free
                0x0000000022010670        0x4 common/built-in.o
                0x0000000022010670                mdio_free
 .text.mdio_register
                0x0000000022010674       0x88 common/built-in.o
                0x0000000022010674                mdio_register
 .text.mdio_unregister
                0x00000000220106fc       0x3c common/built-in.o
                0x00000000220106fc                mdio_unregister
 .text.usb_set_maxpacket_ep
                0x0000000022010738       0x78 common/built-in.o
 .text.usb_control_msg
                0x00000000220107b0       0x9c common/built-in.o
                0x00000000220107b0                usb_control_msg
 .text.usb_get_descriptor
                0x000000002201084c       0x58 common/built-in.o
 .text.get_descriptor_len
                0x00000000220108a4       0x90 common/built-in.o
 .text.usb_setup_descriptor
                0x0000000022010934       0xd8 common/built-in.o
 .text.usb_get_string
                0x0000000022010a0c       0x78 common/built-in.o
 .text.usb_string_sub
                0x0000000022010a84      0x104 common/built-in.o
 .text.usb_bulk_msg
                0x0000000022010b88       0x70 common/built-in.o
                0x0000000022010b88                usb_bulk_msg
 .text.usb_maxpacket
                0x0000000022010bf8       0x18 common/built-in.o
                0x0000000022010bf8                usb_maxpacket
 .text.usb_clear_halt
                0x0000000022010c10       0x90 common/built-in.o
                0x0000000022010c10                usb_clear_halt
 .text.usb_get_configuration_len
                0x0000000022010ca0       0x74 common/built-in.o
                0x0000000022010ca0                usb_get_configuration_len
 .text.usb_get_configuration_no
                0x0000000022010d14       0x34 common/built-in.o
                0x0000000022010d14                usb_get_configuration_no
 .text.usb_set_interface
                0x0000000022010d48       0xb4 common/built-in.o
                0x0000000022010d48                usb_set_interface
 .text.usb_string
                0x0000000022010dfc      0x104 common/built-in.o
                0x0000000022010dfc                usb_string
 .text.usb_select_config
                0x0000000022010f00      0x470 common/built-in.o
                0x0000000022010f00                usb_select_config
 .text.usb_setup_device
                0x0000000022011370      0x104 common/built-in.o
                0x0000000022011370                usb_setup_device
 .text.usb_device_has_child_on_port
                0x0000000022011474        0x8 common/built-in.o
                0x0000000022011474                usb_device_has_child_on_port
 .text.usb_find_usb2_hub_address_port
                0x000000002201147c       0x74 common/built-in.o
                0x000000002201147c                usb_find_usb2_hub_address_port
 .text.usb_set_port_feature
                0x00000000220114f0       0x4c common/built-in.o
 .text.usb_clear_port_feature
                0x000000002201153c       0x4c common/built-in.o
 .text.usb_get_hub_descriptor
                0x0000000022011588       0x5c common/built-in.o
 .text.usb_hub_reset_devices
                0x00000000220115e4        0x4 common/built-in.o
                0x00000000220115e4                usb_hub_reset_devices
 .text.usb_hub_is_root_hub
                0x00000000220115e8       0x18 common/built-in.o
                0x00000000220115e8                usb_hub_is_root_hub
 .text.usb_get_port_status
                0x0000000022011600       0xac common/built-in.o
                0x0000000022011600                usb_get_port_status
 .text.usb_hub_port_connect_change
                0x00000000220116ac      0x16c common/built-in.o
                0x00000000220116ac                usb_hub_port_connect_change
 .text.usb_hub_configure
                0x0000000022011818      0x5c0 common/built-in.o
 .text.usb_hub_scan
                0x0000000022011dd8       0x10 common/built-in.o
                0x0000000022011dd8                usb_hub_scan
 .text.usb_hub_post_probe
                0x0000000022011de8        0x4 common/built-in.o
 .text.usb_stor_irq
                0x0000000022011dec       0x1c common/built-in.o
 .text.usb_stor_BBB_reset
                0x0000000022011e08      0x108 common/built-in.o
 .text.usb_stor_CB_reset
                0x0000000022011f10       0xdc common/built-in.o
 .text.usb_stor_BBB_clear_endpt_stall.isra.0
                0x0000000022011fec       0x40 common/built-in.o
 .text.usb_stor_BBB_transport
                0x000000002201202c      0x284 common/built-in.o
 .text.usb_stor_CB_comdat
                0x00000000220122b0      0x210 common/built-in.o
 .text.usb_stor_CBI_get_status.isra.2
                0x00000000220124c0       0xd8 common/built-in.o
 .text.usb_stor_CB_transport
                0x0000000022012598      0x210 common/built-in.o
 .text.usb_request_sense.constprop.11
                0x00000000220127a8       0x70 common/built-in.o
 .text.usb_stor_read
                0x0000000022012818      0x164 common/built-in.o
 .text.usb_stor_write
                0x000000002201297c      0x164 common/built-in.o
 .text.usb_stor_info
                0x0000000022012ae0       0x74 common/built-in.o
                0x0000000022012ae0                usb_stor_info
 .text.usb_stor_reset
                0x0000000022012b54       0x14 common/built-in.o
                0x0000000022012b54                usb_stor_reset
 .text.usb_stor_scan
                0x0000000022012b68       0x48 common/built-in.o
                0x0000000022012b68                usb_stor_scan
 .text.usb_storage_probe
                0x0000000022012bb0      0x240 common/built-in.o
                0x0000000022012bb0                usb_storage_probe
 .text.usb_stor_get_info
                0x0000000022012df0      0x324 common/built-in.o
                0x0000000022012df0                usb_stor_get_info
 .text.usb_mass_storage_probe
                0x0000000022013114      0x17c common/built-in.o
 .text.delete_char.part.0
                0x0000000022013290       0xd0 common/built-in.o
 .text.cread_add_char
                0x0000000022013360       0xe4 common/built-in.o
 .text.cli_readline_into_buffer
                0x0000000022013444      0xa00 common/built-in.o
                0x0000000022013444                cli_readline_into_buffer
 .text.cli_readline
                0x0000000022013e44       0x14 common/built-in.o
                0x0000000022013e44                cli_readline
 .text.console_setfile
                0x0000000022013e58       0xb8 common/built-in.o
 .text.fgetc    0x0000000022013f10       0x24 common/built-in.o
                0x0000000022013f10                fgetc
 .text.getc     0x0000000022013f34       0x24 common/built-in.o
                0x0000000022013f34                getc
 .text.ftstc    0x0000000022013f58       0x24 common/built-in.o
                0x0000000022013f58                ftstc
 .text.tstc     0x0000000022013f7c       0x24 common/built-in.o
                0x0000000022013f7c                tstc
 .text.fputc    0x0000000022013fa0       0x1c common/built-in.o
                0x0000000022013fa0                fputc
 .text.putc     0x0000000022013fbc       0x44 common/built-in.o
                0x0000000022013fbc                putc
 .text.fputs    0x0000000022014000       0x1c common/built-in.o
                0x0000000022014000                fputs
 .text.puts     0x000000002201401c       0x58 common/built-in.o
                0x000000002201401c                puts
 .text.ctrlc    0x0000000022014074       0x58 common/built-in.o
                0x0000000022014074                ctrlc
 .text.disable_ctrlc
                0x00000000220140cc       0x18 common/built-in.o
                0x00000000220140cc                disable_ctrlc
 .text.had_ctrlc
                0x00000000220140e4       0x10 common/built-in.o
                0x00000000220140e4                had_ctrlc
 .text.clear_ctrlc
                0x00000000220140f4       0x14 common/built-in.o
                0x00000000220140f4                clear_ctrlc
 .text.search_device
                0x0000000022014108       0x28 common/built-in.o
                0x0000000022014108                search_device
 .text.console_assign
                0x0000000022014130       0x40 common/built-in.o
                0x0000000022014130                console_assign
 .text.on_console
                0x0000000022014170       0xb8 common/built-in.o
 .text.console_init_f
                0x0000000022014228       0x10 common/built-in.o
                0x0000000022014228                console_init_f
 .text.stdio_print_current_devices
                0x0000000022014238       0xb0 common/built-in.o
                0x0000000022014238                stdio_print_current_devices
 .text.console_init_r
                0x00000000220142e8       0xdc common/built-in.o
                0x00000000220142e8                console_init_r
 .text.sbrk     0x00000000220143c4       0x6c common/built-in.o
                0x00000000220143c4                sbrk
 .text.mem_malloc_init
                0x0000000022014430       0x34 common/built-in.o
                0x0000000022014430                mem_malloc_init
 .text.malloc_trim
                0x0000000022014464       0xd0 common/built-in.o
                0x0000000022014464                malloc_trim
 .text.free     0x0000000022014534      0x240 common/built-in.o
                0x0000000022014534                free
 .text.malloc   0x0000000022014774      0x614 common/built-in.o
                0x0000000022014774                malloc
 .text.calloc   0x0000000022014d88      0x140 common/built-in.o
                0x0000000022014d88                calloc
 .text.realloc  0x0000000022014ec8      0x428 common/built-in.o
                0x0000000022014ec8                realloc
 .text.memalign
                0x00000000220152f0      0x198 common/built-in.o
                0x00000000220152f0                memalign
 .text.initf_malloc
                0x0000000022015488       0x18 common/built-in.o
                0x0000000022015488                initf_malloc
 .text.malloc_simple
                0x00000000220154a0       0x30 common/built-in.o
                0x00000000220154a0                malloc_simple
 .text.on_loadaddr
                0x00000000220154d0       0x40 common/built-in.o
 .text.image_check_hcrc
                0x0000000022015510       0x4c common/built-in.o
                0x0000000022015510                image_check_hcrc
 .text.image_check_dcrc
                0x000000002201555c       0x38 common/built-in.o
                0x000000002201555c                image_check_dcrc
 .text.image_multi_count
                0x0000000022015594       0x1c common/built-in.o
                0x0000000022015594                image_multi_count
 .text.image_multi_getimg
                0x00000000220155b0       0x80 common/built-in.o
                0x00000000220155b0                image_multi_getimg
 .text.env_get_bootm_low
                0x0000000022015630       0x30 common/built-in.o
                0x0000000022015630                env_get_bootm_low
 .text.env_get_bootm_size
                0x0000000022015660       0x68 common/built-in.o
                0x0000000022015660                env_get_bootm_size
 .text.env_get_bootm_mapsize
                0x00000000220156c8       0x30 common/built-in.o
                0x00000000220156c8                env_get_bootm_mapsize
 .text.memmove_wd
                0x00000000220156f8        0xc common/built-in.o
                0x00000000220156f8                memmove_wd
 .text.genimg_print_size
                0x0000000022015704       0x30 common/built-in.o
                0x0000000022015704                genimg_print_size
 .text.get_table_entry
                0x0000000022015734       0x24 common/built-in.o
                0x0000000022015734                get_table_entry
 .text.get_table_entry_name
                0x0000000022015758       0x20 common/built-in.o
                0x0000000022015758                get_table_entry_name
 .text.genimg_get_os_name
                0x0000000022015778       0x18 common/built-in.o
                0x0000000022015778                genimg_get_os_name
 .text.genimg_get_arch_name
                0x0000000022015790       0x18 common/built-in.o
                0x0000000022015790                genimg_get_arch_name
 .text.genimg_get_type_name
                0x00000000220157a8       0x18 common/built-in.o
                0x00000000220157a8                genimg_get_type_name
 .text.genimg_get_comp_name
                0x00000000220157c0       0x18 common/built-in.o
                0x00000000220157c0                genimg_get_comp_name
 .text.image_print_contents
                0x00000000220157d8      0x1b0 common/built-in.o
                0x00000000220157d8                image_print_contents
 .text.get_table_entry_id
                0x0000000022015988       0x4c common/built-in.o
                0x0000000022015988                get_table_entry_id
 .text.genimg_get_os_id
                0x00000000220159d4       0x18 common/built-in.o
                0x00000000220159d4                genimg_get_os_id
 .text.genimg_get_arch_id
                0x00000000220159ec       0x18 common/built-in.o
                0x00000000220159ec                genimg_get_arch_id
 .text.genimg_get_type_id
                0x0000000022015a04       0x18 common/built-in.o
                0x0000000022015a04                genimg_get_type_id
 .text.genimg_get_comp_id
                0x0000000022015a1c       0x18 common/built-in.o
                0x0000000022015a1c                genimg_get_comp_id
 .text.genimg_get_kernel_addr_fit
                0x0000000022015a34       0x70 common/built-in.o
                0x0000000022015a34                genimg_get_kernel_addr_fit
 .text.genimg_get_format
                0x0000000022015aa4       0x34 common/built-in.o
                0x0000000022015aa4                genimg_get_format
 .text.genimg_has_config
                0x0000000022015ad8       0x10 common/built-in.o
                0x0000000022015ad8                genimg_has_config
 .text.boot_get_ramdisk
                0x0000000022015ae8      0x340 common/built-in.o
                0x0000000022015ae8                boot_get_ramdisk
 .text.boot_ramdisk_high
                0x0000000022015e28      0x130 common/built-in.o
                0x0000000022015e28                boot_ramdisk_high
 .text.boot_get_setup
                0x0000000022015f58        0x4 common/built-in.o
                0x0000000022015f58                boot_get_setup
 .text.boot_get_loadable
                0x0000000022015f5c      0x188 common/built-in.o
                0x0000000022015f5c                boot_get_loadable
 .text.image_setup_linux
                0x00000000220160e4       0x64 common/built-in.o
                0x00000000220160e4                image_setup_linux
 .text.fdt_error
                0x0000000022016148       0x2c common/built-in.o
 .text.boot_fdt_add_mem_rsv_regions
                0x0000000022016174       0x8c common/built-in.o
                0x0000000022016174                boot_fdt_add_mem_rsv_regions
 .text.boot_relocate_fdt
                0x0000000022016200      0x194 common/built-in.o
                0x0000000022016200                boot_relocate_fdt
 .text.boot_get_fdt
                0x0000000022016394      0x390 common/built-in.o
                0x0000000022016394                boot_get_fdt
 .text.ft_verify_fdt
                0x0000000022016724        0x8 common/built-in.o
                0x0000000022016724                ft_verify_fdt
 .text.image_setup_libfdt
                0x000000002201672c      0x110 common/built-in.o
                0x000000002201672c                image_setup_libfdt
 .text.fit_image_get_address
                0x000000002201683c       0x64 common/built-in.o
 .text.fit_parse_conf
                0x00000000220168a0       0x64 common/built-in.o
                0x00000000220168a0                fit_parse_conf
 .text.fit_parse_subimage
                0x0000000022016904       0x64 common/built-in.o
                0x0000000022016904                fit_parse_subimage
 .text.fit_get_desc
                0x0000000022016968       0x30 common/built-in.o
                0x0000000022016968                fit_get_desc
 .text.fit_image_get_node
                0x0000000022016998       0x30 common/built-in.o
                0x0000000022016998                fit_image_get_node
 .text.fit_image_get_os
                0x00000000220169c8       0x3c common/built-in.o
                0x00000000220169c8                fit_image_get_os
 .text.fit_image_get_arch
                0x0000000022016a04       0x3c common/built-in.o
                0x0000000022016a04                fit_image_get_arch
 .text.fit_image_get_type
                0x0000000022016a40       0x3c common/built-in.o
                0x0000000022016a40                fit_image_get_type
 .text.fit_image_get_comp
                0x0000000022016a7c       0x3c common/built-in.o
                0x0000000022016a7c                fit_image_get_comp
 .text.fit_image_get_load
                0x0000000022016ab8       0x10 common/built-in.o
                0x0000000022016ab8                fit_image_get_load
 .text.fit_image_get_entry
                0x0000000022016ac8       0x10 common/built-in.o
                0x0000000022016ac8                fit_image_get_entry
 .text.fit_image_get_data
                0x0000000022016ad8       0x40 common/built-in.o
                0x0000000022016ad8                fit_image_get_data
 .text.fit_image_get_data_offset
                0x0000000022016b18       0x34 common/built-in.o
                0x0000000022016b18                fit_image_get_data_offset
 .text.fit_image_get_data_position
                0x0000000022016b4c       0x34 common/built-in.o
                0x0000000022016b4c                fit_image_get_data_position
 .text.fit_image_get_data_size
                0x0000000022016b80       0x34 common/built-in.o
                0x0000000022016b80                fit_image_get_data_size
 .text.fit_image_get_data_and_size
                0x0000000022016bb4       0x9c common/built-in.o
                0x0000000022016bb4                fit_image_get_data_and_size
 .text.fit_image_hash_get_algo
                0x0000000022016c50       0x30 common/built-in.o
                0x0000000022016c50                fit_image_hash_get_algo
 .text.fit_image_hash_get_value
                0x0000000022016c80       0x40 common/built-in.o
                0x0000000022016c80                fit_image_hash_get_value
 .text.fit_image_print_data
                0x0000000022016cc0      0x144 common/built-in.o
 .text.fit_image_print_verification_data
                0x0000000022016e04       0x88 common/built-in.o
 .text.fit_image_print
                0x0000000022016e8c      0x300 common/built-in.o
                0x0000000022016e8c                fit_image_print
 .text.fit_print_contents
                0x000000002201718c      0x428 common/built-in.o
                0x000000002201718c                fit_print_contents
 .text.fit_get_end
                0x00000000220175b4       0x10 common/built-in.o
                0x00000000220175b4                fit_get_end
 .text.calculate_hash
                0x00000000220175c4       0xf8 common/built-in.o
                0x00000000220175c4                calculate_hash
 .text.fit_image_verify_with_data
                0x00000000220176bc      0x1f8 common/built-in.o
                0x00000000220176bc                fit_image_verify_with_data
 .text.fit_image_verify
                0x00000000220178b4       0x80 common/built-in.o
                0x00000000220178b4                fit_image_verify
 .text.fit_all_image_verify
                0x0000000022017934       0xfc common/built-in.o
                0x0000000022017934                fit_all_image_verify
 .text.fit_image_check_os
                0x0000000022017a30       0x30 common/built-in.o
                0x0000000022017a30                fit_image_check_os
 .text.fit_image_check_arch
                0x0000000022017a60       0x44 common/built-in.o
                0x0000000022017a60                fit_image_check_arch
 .text.fit_image_check_type
                0x0000000022017aa4       0x30 common/built-in.o
                0x0000000022017aa4                fit_image_check_type
 .text.fit_image_check_comp
                0x0000000022017ad4       0x30 common/built-in.o
                0x0000000022017ad4                fit_image_check_comp
 .text.fit_check_format
                0x0000000022017b04       0x40 common/built-in.o
                0x0000000022017b04                fit_check_format
 .text.fit_conf_get_node
                0x0000000022017b44       0xc8 common/built-in.o
                0x0000000022017b44                fit_conf_get_node
 .text.fit_conf_get_prop_node_index
                0x0000000022017c0c       0x30 common/built-in.o
                0x0000000022017c0c                fit_conf_get_prop_node_index
 .text.fit_conf_get_prop_node
                0x0000000022017c3c        0x8 common/built-in.o
                0x0000000022017c3c                fit_conf_get_prop_node
 .text.fit_get_node_from_config
                0x0000000022017c44       0x40 common/built-in.o
                0x0000000022017c44                fit_get_node_from_config
 .text.fit_image_load
                0x0000000022017c84      0x5a4 common/built-in.o
                0x0000000022017c84                fit_image_load
 .text.boot_get_setup_fit
                0x0000000022018228       0x74 common/built-in.o
                0x0000000022018228                boot_get_setup_fit
 .text.boot_get_fdt_fit
                0x000000002201829c      0x304 common/built-in.o
                0x000000002201829c                boot_get_fdt_fit
 .text.get_ram_size
                0x00000000220185a0       0xe8 common/built-in.o
                0x00000000220185a0                get_ram_size
 .text.get_effective_memsize
                0x0000000022018688        0x8 common/built-in.o
                0x0000000022018688                get_effective_memsize
 .text.stdio_serial_tstc
                0x0000000022018690        0x4 common/built-in.o
 .text.stdio_serial_getc
                0x0000000022018694        0x4 common/built-in.o
 .text.stdio_serial_puts
                0x0000000022018698        0x8 common/built-in.o
 .text.stdio_serial_putc
                0x00000000220186a0        0x8 common/built-in.o
 .text.stdio_get_list
                0x00000000220186a8        0xc common/built-in.o
                0x00000000220186a8                stdio_get_list
 .text.stdio_get_by_name
                0x00000000220186b4       0x4c common/built-in.o
                0x00000000220186b4                stdio_get_by_name
 .text.stdio_clone
                0x0000000022018700       0x38 common/built-in.o
                0x0000000022018700                stdio_clone
 .text.stdio_register_dev
                0x0000000022018738       0x50 common/built-in.o
                0x0000000022018738                stdio_register_dev
 .text.stdio_register
                0x0000000022018788        0x8 common/built-in.o
                0x0000000022018788                stdio_register
 .text.stdio_init_tables
                0x0000000022018790       0x1c common/built-in.o
                0x0000000022018790                stdio_init_tables
 .text.stdio_add_devices
                0x00000000220187ac       0x78 common/built-in.o
                0x00000000220187ac                stdio_add_devices
 .text.run_command
                0x0000000022018824       0x10 common/built-in.o
                0x0000000022018824                run_command
 .text.run_command_list
                0x0000000022018834       0x7c common/built-in.o
                0x0000000022018834                run_command_list
 .text.do_run   0x00000000220188b0       0x74 common/built-in.o
                0x00000000220188b0                do_run
 .text.cli_process_fdt
                0x0000000022018924       0x40 common/built-in.o
                0x0000000022018924                cli_process_fdt
 .text.cli_secure_boot_cmd
                0x0000000022018964       0x78 common/built-in.o
                0x0000000022018964                cli_secure_boot_cmd
 .text.cli_loop
                0x00000000220189dc        0xc common/built-in.o
                0x00000000220189dc                cli_loop
 .text.cli_init
                0x00000000220189e8        0x4 common/built-in.o
                0x00000000220189e8                cli_init
 .text.find_cmd_tbl
                0x00000000220189ec       0xa4 common/built-in.o
                0x00000000220189ec                find_cmd_tbl
 .text.find_cmd
                0x0000000022018a90       0x28 common/built-in.o
                0x0000000022018a90                find_cmd
 .text.cmd_usage
                0x0000000022018ab8       0x5c common/built-in.o
                0x0000000022018ab8                cmd_usage
 .text._do_help
                0x0000000022018b14      0x184 common/built-in.o
                0x0000000022018b14                _do_help
 .text.var_complete
                0x0000000022018c98       0x88 common/built-in.o
                0x0000000022018c98                var_complete
 .text.cmd_auto_complete
                0x0000000022018d20      0x4c0 common/built-in.o
                0x0000000022018d20                cmd_auto_complete
 .text.cmd_get_data_size
                0x00000000220191e0       0x50 common/built-in.o
                0x00000000220191e0                cmd_get_data_size
 .text.cmd_process
                0x0000000022019230       0xec common/built-in.o
                0x0000000022019230                cmd_process
 .text.cmd_process_error
                0x000000002201931c       0x30 common/built-in.o
                0x000000002201931c                cmd_process_error
 .text.CYGACC_COMM_IF_GETC_TIMEOUT.isra.0
                0x000000002201934c       0x4c common/built-in.o
 .text.xyzModem_flush
                0x0000000022019398       0x1c common/built-in.o
 .text.xyzModem_get_hdr
                0x00000000220193b4      0x21c common/built-in.o
 .text.xyzModem_stream_open
                0x00000000220195d0      0x214 common/built-in.o
                0x00000000220195d0                xyzModem_stream_open
 .text.xyzModem_stream_read
                0x00000000220197e4      0x25c common/built-in.o
                0x00000000220197e4                xyzModem_stream_read
 .text.xyzModem_stream_close
                0x0000000022019a40       0x54 common/built-in.o
                0x0000000022019a40                xyzModem_stream_close
 .text.xyzModem_stream_terminate
                0x0000000022019a94       0x94 common/built-in.o
                0x0000000022019a94                xyzModem_stream_terminate
 .text.xyzModem_error
                0x0000000022019b28       0x1c common/built-in.o
                0x0000000022019b28                xyzModem_error
 .text.part_driver_lookup_type
                0x0000000022019b44       0x88 disk/built-in.o
 .text.dev_print
                0x0000000022019bcc      0x230 disk/built-in.o
                0x0000000022019bcc                dev_print
 .text.part_init
                0x0000000022019dfc       0x60 disk/built-in.o
                0x0000000022019dfc                part_init
 .text.part_print
                0x0000000022019e5c      0x118 disk/built-in.o
                0x0000000022019e5c                part_print
 .text.part_get_info
                0x0000000022019f74       0x58 disk/built-in.o
                0x0000000022019f74                part_get_info
 .text.part_get_info_whole_disk
                0x0000000022019fcc       0x4c disk/built-in.o
                0x0000000022019fcc                part_get_info_whole_disk
 .text.blk_get_device_by_str
                0x000000002201a018      0x14c disk/built-in.o
                0x000000002201a018                blk_get_device_by_str
 .text.blk_get_device_part_str
                0x000000002201a164      0x3c8 disk/built-in.o
                0x000000002201a164                blk_get_device_part_str
 .text.part_set_generic_name
                0x000000002201a52c       0x4c disk/built-in.o
                0x000000002201a52c                part_set_generic_name
 .text.test_block_type
                0x000000002201a578       0x84 disk/built-in.o
 .text.print_partition_extended
                0x000000002201a5fc      0x270 disk/built-in.o
 .text.part_print_dos
                0x000000002201a86c       0x34 disk/built-in.o
                0x000000002201a86c                part_print_dos
 .text.part_test_dos
                0x000000002201a8a0       0x6c disk/built-in.o
 .text.part_get_info_extended.constprop.1
                0x000000002201a90c      0x27c disk/built-in.o
 .text.part_get_info_dos
                0x000000002201ab88       0x20 disk/built-in.o
                0x000000002201ab88                part_get_info_dos
 .text.clk_request
                0x000000002201aba8       0x28 drivers/built-in.o
                0x000000002201aba8                clk_request
 .text.clk_get_by_indexed_prop.isra.1
                0x000000002201abd0       0xac drivers/built-in.o
 .text.clk_get_by_index
                0x000000002201ac7c       0x18 drivers/built-in.o
                0x000000002201ac7c                clk_get_by_index
 .text.clk_free
                0x000000002201ac94       0x24 drivers/built-in.o
                0x000000002201ac94                clk_free
 .text.clk_get_rate
                0x000000002201acb8       0x24 drivers/built-in.o
                0x000000002201acb8                clk_get_rate
 .text.clk_set_rate
                0x000000002201acdc       0x24 drivers/built-in.o
                0x000000002201acdc                clk_set_rate
 .text.clk_set_parent
                0x000000002201ad00       0x24 drivers/built-in.o
                0x000000002201ad00                clk_set_parent
 .text.clk_set_defaults
                0x000000002201ad24      0x170 drivers/built-in.o
                0x000000002201ad24                clk_set_defaults
 .text.clk_enable
                0x000000002201ae94       0x24 drivers/built-in.o
                0x000000002201ae94                clk_enable
 .text.clk_fixed_rate_ofdata_to_platdata
                0x000000002201aeb8       0x34 drivers/built-in.o
 .text.clk_fixed_rate_get_rate
                0x000000002201aeec       0x28 drivers/built-in.o
 .text.at91_pmc_core_probe
                0x000000002201af14       0x28 drivers/built-in.o
                0x000000002201af14                at91_pmc_core_probe
 .text.at91_clk_sub_device_bind
                0x000000002201af3c       0xe8 drivers/built-in.o
                0x000000002201af3c                at91_clk_sub_device_bind
 .text.at91_clk_of_xlate
                0x000000002201b024       0x4c drivers/built-in.o
                0x000000002201b024                at91_clk_of_xlate
 .text.at91_clk_probe
                0x000000002201b070       0x2c drivers/built-in.o
                0x000000002201b070                at91_clk_probe
 .text.at91_slow_clk_enable
                0x000000002201b09c        0x8 drivers/built-in.o
 .text.at91_slow_clk_get_rate
                0x000000002201b0a4        0x8 drivers/built-in.o
 .text.main_osc_clk_get_rate
                0x000000002201b0ac        0x8 drivers/built-in.o
 .text.main_osc_clk_enable
                0x000000002201b0b4       0x28 drivers/built-in.o
 .text.main_osc_clk_probe
                0x000000002201b0dc        0x4 drivers/built-in.o
 .text.plla_clk_get_rate
                0x000000002201b0e0        0x8 drivers/built-in.o
 .text.plla_clk_enable
                0x000000002201b0e8       0x28 drivers/built-in.o
 .text.plla_clk_probe
                0x000000002201b110        0x4 drivers/built-in.o
 .text.at91_plladiv_clk_enable
                0x000000002201b114        0x8 drivers/built-in.o
 .text.at91_plladiv_clk_set_rate
                0x000000002201b11c       0x70 drivers/built-in.o
 .text.at91_plladiv_clk_get_rate
                0x000000002201b18c       0x50 drivers/built-in.o
 .text.at91_plladiv_clk_probe
                0x000000002201b1dc        0x4 drivers/built-in.o
 .text.at91_master_clk_get_rate
                0x000000002201b1e0        0x8 drivers/built-in.o
 .text.at91_system_clk_bind
                0x000000002201b1e8        0xc drivers/built-in.o
 .text.system_clk_enable
                0x000000002201b1f4       0x64 drivers/built-in.o
 .text.system_clk_set_rate
                0x000000002201b258       0x38 drivers/built-in.o
 .text.system_clk_get_rate
                0x000000002201b290       0x30 drivers/built-in.o
 .text.sam9x5_periph_clk_bind
                0x000000002201b2c0        0xc drivers/built-in.o
 .text.periph_clk_enable
                0x000000002201b2cc       0x8c drivers/built-in.o
 .text.periph_get_rate
                0x000000002201b358       0x40 drivers/built-in.o
 .text.utmi_clk_get_rate
                0x000000002201b398        0xc drivers/built-in.o
 .text.utmi_clk_enable
                0x000000002201b3a4      0x14c drivers/built-in.o
 .text.utmi_clk_ofdata_to_platdata
                0x000000002201b4f0       0x48 drivers/built-in.o
 .text.utmi_clk_probe
                0x000000002201b538        0x4 drivers/built-in.o
 .text.sama5d4_h32mx_clk_get_rate
                0x000000002201b53c       0x28 drivers/built-in.o
 .text.sama5d4_h32mx_clk_probe
                0x000000002201b564        0x4 drivers/built-in.o
 .text.generated_clk_bind
                0x000000002201b568        0xc drivers/built-in.o
 .text.generic_clk_set_rate
                0x000000002201b574      0x19c drivers/built-in.o
 .text.generic_clk_get_rate
                0x000000002201b710       0x80 drivers/built-in.o
 .text.generic_clk_ofdata_to_platdata
                0x000000002201b790       0x58 drivers/built-in.o
 .text.device_bind_common.isra.0
                0x000000002201b7e8      0x34c drivers/built-in.o
 .text.alloc_priv
                0x000000002201bb34       0x54 drivers/built-in.o
 .text.device_bind_with_driver_data
                0x000000002201bb88       0x24 drivers/built-in.o
                0x000000002201bb88                device_bind_with_driver_data
 .text.device_bind
                0x000000002201bbac       0x28 drivers/built-in.o
                0x000000002201bbac                device_bind
 .text.device_bind_by_name
                0x000000002201bbd4       0x70 drivers/built-in.o
                0x000000002201bbd4                device_bind_by_name
 .text.device_probe
                0x000000002201bc44      0x28c drivers/built-in.o
                0x000000002201bc44                device_probe
 .text.dev_get_platdata
                0x000000002201bed0       0x30 drivers/built-in.o
                0x000000002201bed0                dev_get_platdata
 .text.dev_get_parent_platdata
                0x000000002201bf00       0x30 drivers/built-in.o
                0x000000002201bf00                dev_get_parent_platdata
 .text.dev_get_uclass_platdata
                0x000000002201bf30       0x30 drivers/built-in.o
                0x000000002201bf30                dev_get_uclass_platdata
 .text.dev_get_priv
                0x000000002201bf60       0x30 drivers/built-in.o
                0x000000002201bf60                dev_get_priv
 .text.dev_get_uclass_priv
                0x000000002201bf90       0x30 drivers/built-in.o
                0x000000002201bf90                dev_get_uclass_priv
 .text.dev_get_parent_priv
                0x000000002201bfc0       0x30 drivers/built-in.o
                0x000000002201bfc0                dev_get_parent_priv
 .text.device_find_first_child
                0x000000002201bff0       0x1c drivers/built-in.o
                0x000000002201bff0                device_find_first_child
 .text.device_find_next_child
                0x000000002201c00c       0x28 drivers/built-in.o
                0x000000002201c00c                device_find_next_child
 .text.dev_get_parent
                0x000000002201c034        0x8 drivers/built-in.o
                0x000000002201c034                dev_get_parent
 .text.dev_get_driver_data
                0x000000002201c03c        0x8 drivers/built-in.o
                0x000000002201c03c                dev_get_driver_data
 .text.device_get_uclass_id
                0x000000002201c044       0x10 drivers/built-in.o
                0x000000002201c044                device_get_uclass_id
 .text.device_has_active_children
                0x000000002201c054       0x40 drivers/built-in.o
                0x000000002201c054                device_has_active_children
 .text.device_is_last_sibling
                0x000000002201c094       0x24 drivers/built-in.o
                0x000000002201c094                device_is_last_sibling
 .text.device_set_name_alloced
                0x000000002201c0b8       0x10 drivers/built-in.o
                0x000000002201c0b8                device_set_name_alloced
 .text.devfdt_get_addr_index
                0x000000002201c0c8       0xd0 drivers/built-in.o
                0x000000002201c0c8                devfdt_get_addr_index
 .text.devfdt_get_addr
                0x000000002201c198        0x8 drivers/built-in.o
                0x000000002201c198                devfdt_get_addr
 .text.devfdt_get_addr_ptr
                0x000000002201c1a0        0x8 drivers/built-in.o
                0x000000002201c1a0                devfdt_get_addr_ptr
 .text.lists_driver_lookup_name
                0x000000002201c1a8       0x48 drivers/built-in.o
                0x000000002201c1a8                lists_driver_lookup_name
 .text.lists_uclass_lookup
                0x000000002201c1f0       0x38 drivers/built-in.o
                0x000000002201c1f0                lists_uclass_lookup
 .text.lists_bind_drivers
                0x000000002201c228       0x8c drivers/built-in.o
                0x000000002201c228                lists_bind_drivers
 .text.device_bind_driver_to_node
                0x000000002201c2b4       0x48 drivers/built-in.o
                0x000000002201c2b4                device_bind_driver_to_node
 .text.device_bind_driver
                0x000000002201c2fc       0x18 drivers/built-in.o
                0x000000002201c2fc                device_bind_driver
 .text.lists_bind_fdt
                0x000000002201c314      0x170 drivers/built-in.o
                0x000000002201c314                lists_bind_fdt
 .text.dm_scan_fdt_node
                0x000000002201c484       0xf8 drivers/built-in.o
 .text.dm_root  0x000000002201c57c       0x2c drivers/built-in.o
                0x000000002201c57c                dm_root
 .text.dm_get_translation_offset
                0x000000002201c5a8       0x14 drivers/built-in.o
                0x000000002201c5a8                dm_get_translation_offset
 .text.dm_init  0x000000002201c5bc       0x60 drivers/built-in.o
                0x000000002201c5bc                dm_init
 .text.dm_remove_devices_flags
                0x000000002201c61c       0x1c drivers/built-in.o
                0x000000002201c61c                dm_remove_devices_flags
 .text.dm_scan_platdata
                0x000000002201c638       0x2c drivers/built-in.o
                0x000000002201c638                dm_scan_platdata
 .text.dm_scan_fdt_dev
                0x000000002201c664       0x28 drivers/built-in.o
                0x000000002201c664                dm_scan_fdt_dev
 .text.dm_scan_fdt
                0x000000002201c68c       0x18 drivers/built-in.o
                0x000000002201c68c                dm_scan_fdt
 .text.dm_extended_scan_fdt
                0x000000002201c6a4       0x4c drivers/built-in.o
                0x000000002201c6a4                dm_extended_scan_fdt
 .text.dm_scan_other
                0x000000002201c6f0        0x8 drivers/built-in.o
                0x000000002201c6f0                dm_scan_other
 .text.dm_init_and_scan
                0x000000002201c6f8       0x48 drivers/built-in.o
                0x000000002201c6f8                dm_init_and_scan
 .text.uclass_find
                0x000000002201c740       0x4c drivers/built-in.o
                0x000000002201c740                uclass_find
 .text.uclass_get
                0x000000002201c78c      0x118 drivers/built-in.o
                0x000000002201c78c                uclass_get
 .text.uclass_find_device
                0x000000002201c8a4       0x74 drivers/built-in.o
                0x000000002201c8a4                uclass_find_device
 .text.uclass_find_first_device
                0x000000002201c918       0x3c drivers/built-in.o
                0x000000002201c918                uclass_find_first_device
 .text.uclass_find_next_device
                0x000000002201c954       0x2c drivers/built-in.o
                0x000000002201c954                uclass_find_next_device
 .text.uclass_find_device_by_seq
                0x000000002201c980       0x7c drivers/built-in.o
                0x000000002201c980                uclass_find_device_by_seq
 .text.uclass_find_device_by_of_offset
                0x000000002201c9fc       0x68 drivers/built-in.o
                0x000000002201c9fc                uclass_find_device_by_of_offset
 .text.uclass_find_device_by_ofnode
                0x000000002201ca64       0x6c drivers/built-in.o
                0x000000002201ca64                uclass_find_device_by_ofnode
 .text.uclass_get_device_tail
                0x000000002201cad0       0x30 drivers/built-in.o
                0x000000002201cad0                uclass_get_device_tail
 .text.uclass_get_device
                0x000000002201cb00       0x30 drivers/built-in.o
                0x000000002201cb00                uclass_get_device
 .text.uclass_get_device_by_seq
                0x000000002201cb30       0x54 drivers/built-in.o
                0x000000002201cb30                uclass_get_device_by_seq
 .text.uclass_get_device_by_of_offset
                0x000000002201cb84       0x30 drivers/built-in.o
                0x000000002201cb84                uclass_get_device_by_of_offset
 .text.uclass_get_device_by_ofnode
                0x000000002201cbb4       0x30 drivers/built-in.o
                0x000000002201cbb4                uclass_get_device_by_ofnode
 .text.uclass_get_device_by_phandle_id
                0x000000002201cbe4       0x84 drivers/built-in.o
                0x000000002201cbe4                uclass_get_device_by_phandle_id
 .text.uclass_get_device_by_phandle
                0x000000002201cc68       0xa4 drivers/built-in.o
                0x000000002201cc68                uclass_get_device_by_phandle
 .text.uclass_first_device
                0x000000002201cd0c       0x38 drivers/built-in.o
                0x000000002201cd0c                uclass_first_device
 .text.uclass_first_device_err
                0x000000002201cd44       0x24 drivers/built-in.o
                0x000000002201cd44                uclass_first_device_err
 .text.uclass_next_device
                0x000000002201cd68       0x40 drivers/built-in.o
                0x000000002201cd68                uclass_next_device
 .text.uclass_first_device_check
                0x000000002201cda8       0x34 drivers/built-in.o
                0x000000002201cda8                uclass_first_device_check
 .text.uclass_next_device_check
                0x000000002201cddc       0x2c drivers/built-in.o
                0x000000002201cddc                uclass_next_device_check
 .text.uclass_bind_device
                0x000000002201ce08       0x7c drivers/built-in.o
                0x000000002201ce08                uclass_bind_device
 .text.uclass_unbind_device
                0x000000002201ce84       0x4c drivers/built-in.o
                0x000000002201ce84                uclass_unbind_device
 .text.uclass_resolve_seq
                0x000000002201ced0       0xb4 drivers/built-in.o
                0x000000002201ced0                uclass_resolve_seq
 .text.uclass_pre_probe_device
                0x000000002201cf84       0x60 drivers/built-in.o
                0x000000002201cf84                uclass_pre_probe_device
 .text.uclass_post_probe_device
                0x000000002201cfe4       0x20 drivers/built-in.o
                0x000000002201cfe4                uclass_post_probe_device
 .text.uclass_pre_remove_device
                0x000000002201d004       0x20 drivers/built-in.o
                0x000000002201d004                uclass_pre_remove_device
 .text.dm_warn  0x000000002201d024       0x28 drivers/built-in.o
                0x000000002201d024                dm_warn
 .text.dm_fdt_pre_reloc
                0x000000002201d04c       0x68 drivers/built-in.o
                0x000000002201d04c                dm_fdt_pre_reloc
 .text.device_unbind
                0x000000002201d0b4      0x144 drivers/built-in.o
                0x000000002201d0b4                device_unbind
 .text.device_free
                0x000000002201d1f8       0x90 drivers/built-in.o
                0x000000002201d1f8                device_free
 .text.device_remove
                0x000000002201d288      0x168 drivers/built-in.o
                0x000000002201d288                device_remove
 .text.simple_bus_post_bind
                0x000000002201d3f0       0x58 drivers/built-in.o
 .text.show_devices
                0x000000002201d448       0xec drivers/built-in.o
 .text.dm_dump_all
                0x000000002201d534       0x3c drivers/built-in.o
                0x000000002201d534                dm_dump_all
 .text.dm_dump_uclass
                0x000000002201d570       0xec drivers/built-in.o
                0x000000002201d570                dm_dump_uclass
 .text.regmap_init_mem
                0x000000002201d65c       0xe0 drivers/built-in.o
                0x000000002201d65c                regmap_init_mem
 .text.regmap_read
                0x000000002201d73c       0x18 drivers/built-in.o
                0x000000002201d73c                regmap_read
 .text.regmap_write
                0x000000002201d754       0x14 drivers/built-in.o
                0x000000002201d754                regmap_write
 .text.syscon_pre_probe
                0x000000002201d768       0x1c drivers/built-in.o
 .text.syscon_get_regmap
                0x000000002201d784       0x2c drivers/built-in.o
                0x000000002201d784                syscon_get_regmap
 .text.ofnode_read_u32
                0x000000002201d7b0       0x54 drivers/built-in.o
                0x000000002201d7b0                ofnode_read_u32
 .text.ofnode_read_u32_default
                0x000000002201d804       0x20 drivers/built-in.o
                0x000000002201d804                ofnode_read_u32_default
 .text.ofnode_read_string
                0x000000002201d824       0x54 drivers/built-in.o
                0x000000002201d824                ofnode_read_string
 .text.ofnode_read_u32_array
                0x000000002201d878       0x28 drivers/built-in.o
                0x000000002201d878                ofnode_read_u32_array
 .text.ofnode_first_subnode
                0x000000002201d8a0       0x18 drivers/built-in.o
                0x000000002201d8a0                ofnode_first_subnode
 .text.ofnode_next_subnode
                0x000000002201d8b8       0x18 drivers/built-in.o
                0x000000002201d8b8                ofnode_next_subnode
 .text.ofnode_get_parent
                0x000000002201d8d0       0x18 drivers/built-in.o
                0x000000002201d8d0                ofnode_get_parent
 .text.ofnode_get_name
                0x000000002201d8e8       0x14 drivers/built-in.o
                0x000000002201d8e8                ofnode_get_name
 .text.ofnode_read_size
                0x000000002201d8fc       0x30 drivers/built-in.o
                0x000000002201d8fc                ofnode_read_size
 .text.ofnode_stringlist_search
                0x000000002201d92c       0x38 drivers/built-in.o
                0x000000002201d92c                ofnode_stringlist_search
 .text.ofnode_parse_phandle_with_args
                0x000000002201d964       0x68 drivers/built-in.o
                0x000000002201d964                ofnode_parse_phandle_with_args
 .text.ofnode_count_phandle_with_args
                0x000000002201d9cc       0x34 drivers/built-in.o
                0x000000002201d9cc                ofnode_count_phandle_with_args
 .text.ofnode_path
                0x000000002201da00       0x18 drivers/built-in.o
                0x000000002201da00                ofnode_path
 .text.ofnode_get_chosen_prop
                0x000000002201da18       0x20 drivers/built-in.o
                0x000000002201da18                ofnode_get_chosen_prop
 .text.ofnode_get_chosen_node
                0x000000002201da38       0x20 drivers/built-in.o
                0x000000002201da38                ofnode_get_chosen_node
 .text.ofnode_get_property
                0x000000002201da58       0x18 drivers/built-in.o
                0x000000002201da58                ofnode_get_property
 .text.ofnode_read_bool
                0x000000002201da70       0x18 drivers/built-in.o
                0x000000002201da70                ofnode_read_bool
 .text.ofnode_get_addr_size
                0x000000002201da88       0x18 drivers/built-in.o
                0x000000002201da88                ofnode_get_addr_size
 .text.ofnode_read_addr_cells
                0x000000002201daa0       0x10 drivers/built-in.o
                0x000000002201daa0                ofnode_read_addr_cells
 .text.ofnode_read_size_cells
                0x000000002201dab0       0x10 drivers/built-in.o
                0x000000002201dab0                ofnode_read_size_cells
 .text.ofnode_read_simple_addr_cells
                0x000000002201dac0        0x4 drivers/built-in.o
                0x000000002201dac0                ofnode_read_simple_addr_cells
 .text.ofnode_read_simple_size_cells
                0x000000002201dac4        0x4 drivers/built-in.o
                0x000000002201dac4                ofnode_read_simple_size_cells
 .text.ofnode_pre_reloc
                0x000000002201dac8       0x50 drivers/built-in.o
                0x000000002201dac8                ofnode_pre_reloc
 .text.pinconfig_post_bind
                0x000000002201db18       0xcc drivers/built-in.o
 .text.pinctrl_post_bind
                0x000000002201dbe4       0x30 drivers/built-in.o
 .text.pinctrl_select_state
                0x000000002201dc14      0x16c drivers/built-in.o
                0x000000002201dc14                pinctrl_select_state
 .text.atmel_pinctrl_set_state
                0x000000002201dd80      0x1bc drivers/built-in.o
 .text.atmel_pinctrl_probe
                0x000000002201df3c       0x30 drivers/built-in.o
 .text.timer_post_probe
                0x000000002201df6c       0x1c drivers/built-in.o
 .text.timer_pre_probe
                0x000000002201df88       0x68 drivers/built-in.o
 .text.timer_get_count
                0x000000002201dff0       0x20 drivers/built-in.o
                0x000000002201dff0                timer_get_count
 .text.timer_get_rate
                0x000000002201e010        0xc drivers/built-in.o
                0x000000002201e010                timer_get_rate
 .text.timer_conv_64
                0x000000002201e01c       0x38 drivers/built-in.o
                0x000000002201e01c                timer_conv_64
 .text.dm_timer_init
                0x000000002201e054       0xc0 drivers/built-in.o
                0x000000002201e054                dm_timer_init
 .text.atmel_pit_get_count
                0x000000002201e114       0x28 drivers/built-in.o
 .text.atmel_pit_ofdata_to_platdata
                0x000000002201e13c       0x24 drivers/built-in.o
 .text.atmel_pit_probe
                0x000000002201e160       0x70 drivers/built-in.o
 .text.get_desc
                0x000000002201e1d0       0xac drivers/built-in.o
 .text.blk_get_if_type_name
                0x000000002201e27c       0x10 drivers/built-in.o
                0x000000002201e27c                blk_get_if_type_name
 .text.blk_get_devnum_by_typename
                0x000000002201e28c       0xe8 drivers/built-in.o
                0x000000002201e28c                blk_get_devnum_by_typename
 .text.blk_list_part
                0x000000002201e374       0x74 drivers/built-in.o
                0x000000002201e374                blk_list_part
 .text.blk_print_part_devnum
                0x000000002201e3e8       0x38 drivers/built-in.o
                0x000000002201e3e8                blk_print_part_devnum
 .text.blk_list_devices
                0x000000002201e420       0x68 drivers/built-in.o
                0x000000002201e420                blk_list_devices
 .text.blk_print_device_num
                0x000000002201e488       0x3c drivers/built-in.o
                0x000000002201e488                blk_print_device_num
 .text.blk_show_device
                0x000000002201e4c4       0x78 drivers/built-in.o
                0x000000002201e4c4                blk_show_device
 .text.blk_select_hwpart
                0x000000002201e53c       0x30 drivers/built-in.o
                0x000000002201e53c                blk_select_hwpart
 .text.blk_dselect_hwpart
                0x000000002201e56c        0x8 drivers/built-in.o
                0x000000002201e56c                blk_dselect_hwpart
 .text.blk_first_device
                0x000000002201e574       0x60 drivers/built-in.o
                0x000000002201e574                blk_first_device
 .text.blk_next_device
                0x000000002201e5d4       0x50 drivers/built-in.o
                0x000000002201e5d4                blk_next_device
 .text.blk_find_device
                0x000000002201e624       0x80 drivers/built-in.o
                0x000000002201e624                blk_find_device
 .text.blk_get_device
                0x000000002201e6a4       0x20 drivers/built-in.o
                0x000000002201e6a4                blk_get_device
 .text.blk_get_devnum_by_type
                0x000000002201e6c4       0x28 drivers/built-in.o
                0x000000002201e6c4                blk_get_devnum_by_type
 .text.blk_select_hwpart_devnum
                0x000000002201e6ec       0x2c drivers/built-in.o
                0x000000002201e6ec                blk_select_hwpart_devnum
 .text.blk_dread
                0x000000002201e718       0xa4 drivers/built-in.o
                0x000000002201e718                blk_dread
 .text.blk_read_devnum
                0x000000002201e7bc       0x38 drivers/built-in.o
                0x000000002201e7bc                blk_read_devnum
 .text.blk_dwrite
                0x000000002201e7f4       0x58 drivers/built-in.o
                0x000000002201e7f4                blk_dwrite
 .text.blk_write_devnum
                0x000000002201e84c       0x38 drivers/built-in.o
                0x000000002201e84c                blk_write_devnum
 .text.blk_derase
                0x000000002201e884       0x4c drivers/built-in.o
                0x000000002201e884                blk_derase
 .text.blk_prepare_device
                0x000000002201e8d0       0x14 drivers/built-in.o
                0x000000002201e8d0                blk_prepare_device
 .text.blk_find_max_devnum
                0x000000002201e8e4       0x78 drivers/built-in.o
                0x000000002201e8e4                blk_find_max_devnum
 .text.blk_create_device
                0x000000002201e95c      0x15c drivers/built-in.o
                0x000000002201e95c                blk_create_device
 .text.blk_create_devicef
                0x000000002201eab8       0xa0 drivers/built-in.o
                0x000000002201eab8                blk_create_devicef
 .text.blkcache_read
                0x000000002201eb58       0xf0 drivers/built-in.o
                0x000000002201eb58                blkcache_read
 .text.blkcache_fill
                0x000000002201ec48      0x140 drivers/built-in.o
                0x000000002201ec48                blkcache_fill
 .text.blkcache_invalidate
                0x000000002201ed88       0x84 drivers/built-in.o
                0x000000002201ed88                blkcache_invalidate
 .text.blkcache_configure
                0x000000002201ee0c       0x90 drivers/built-in.o
                0x000000002201ee0c                blkcache_configure
 .text.blkcache_stats
                0x000000002201ee9c       0x28 drivers/built-in.o
                0x000000002201ee9c                blkcache_stats
 .text.i2c_eeprom_std_write
                0x000000002201eec4        0x8 drivers/built-in.o
 .text.i2c_eeprom_std_probe
                0x000000002201eecc        0x8 drivers/built-in.o
 .text.i2c_eeprom_std_read
                0x000000002201eed4        0x4 drivers/built-in.o
 .text.i2c_eeprom_std_ofdata_to_platdata
                0x000000002201eed8       0x34 drivers/built-in.o
 .text.i2c_eeprom_read
                0x000000002201ef0c       0x2c drivers/built-in.o
                0x000000002201ef0c                i2c_eeprom_read
 .text.mmc_send_ext_csd
                0x000000002201ef38       0x4c drivers/built-in.o
 .text.mmc_send_op_cond_iter
                0x000000002201ef84       0x78 drivers/built-in.o
 .text.mmc_go_idle
                0x000000002201effc       0x4c drivers/built-in.o
 .text.mmc_set_capacity
                0x000000002201f048       0xb0 drivers/built-in.o
 .text.mmc_read_and_compare_ext_csd
                0x000000002201f0f8       0xa8 drivers/built-in.o
 .text.mmc_mode_name
                0x000000002201f1a0       0x1c drivers/built-in.o
                0x000000002201f1a0                mmc_mode_name
 .text.mmc_send_status
                0x000000002201f1bc       0xcc drivers/built-in.o
                0x000000002201f1bc                mmc_send_status
 .text.mmc_set_blocklen
                0x000000002201f288       0x84 drivers/built-in.o
                0x000000002201f288                mmc_set_blocklen
 .text.mmc_bread
                0x000000002201f30c      0x16c drivers/built-in.o
                0x000000002201f30c                mmc_bread
 .text.mmc_switch
                0x000000002201f478       0x68 drivers/built-in.o
                0x000000002201f478                mmc_switch
 .text.mmc_startup_v4
                0x000000002201f4e0      0x334 drivers/built-in.o
 .text.mmc_set_card_speed
                0x000000002201f814       0xa8 drivers/built-in.o
 .text.mmc_switch_part
                0x000000002201f8bc       0x64 drivers/built-in.o
                0x000000002201f8bc                mmc_switch_part
 .text.mmc_hwpart_config
                0x000000002201f920      0x428 drivers/built-in.o
                0x000000002201f920                mmc_hwpart_config
 .text.mmc_set_clock
                0x000000002201fd48       0x30 drivers/built-in.o
                0x000000002201fd48                mmc_set_clock
 .text.mmc_startup
                0x000000002201fd78      0xc58 drivers/built-in.o
 .text.mmc_dump_capabilities
                0x00000000220209d0        0x4 drivers/built-in.o
                0x00000000220209d0                mmc_dump_capabilities
 .text.mmc_start_init
                0x00000000220209d4      0x268 drivers/built-in.o
                0x00000000220209d4                mmc_start_init
 .text.mmc_init
                0x0000000022020c3c      0x108 drivers/built-in.o
                0x0000000022020c3c                mmc_init
 .text.mmc_set_dsr
                0x0000000022020d44        0xc drivers/built-in.o
                0x0000000022020d44                mmc_set_dsr
 .text.mmc_initialize
                0x0000000022020d50       0xd0 drivers/built-in.o
                0x0000000022020d50                mmc_initialize
 .text.mmc_blk_probe
                0x0000000022020e20       0x18 drivers/built-in.o
 .text.dm_mmc_set_ios
                0x0000000022020e38       0x20 drivers/built-in.o
                0x0000000022020e38                dm_mmc_set_ios
 .text.mmc_set_ios
                0x0000000022020e58        0x8 drivers/built-in.o
                0x0000000022020e58                mmc_set_ios
 .text.dm_mmc_send_init_stream
                0x0000000022020e60       0x18 drivers/built-in.o
                0x0000000022020e60                dm_mmc_send_init_stream
 .text.mmc_send_init_stream
                0x0000000022020e78        0x8 drivers/built-in.o
                0x0000000022020e78                mmc_send_init_stream
 .text.dm_mmc_get_wp
                0x0000000022020e80       0x20 drivers/built-in.o
                0x0000000022020e80                dm_mmc_get_wp
 .text.mmc_getwp
                0x0000000022020ea0        0x8 drivers/built-in.o
                0x0000000022020ea0                mmc_getwp
 .text.dm_mmc_get_cd
                0x0000000022020ea8       0x20 drivers/built-in.o
                0x0000000022020ea8                dm_mmc_get_cd
 .text.mmc_getcd
                0x0000000022020ec8        0x8 drivers/built-in.o
                0x0000000022020ec8                mmc_getcd
 .text.mmc_get_mmc_dev
                0x0000000022020ed0       0x24 drivers/built-in.o
                0x0000000022020ed0                mmc_get_mmc_dev
 .text.dm_mmc_send_cmd
                0x0000000022020ef4       0x44 drivers/built-in.o
                0x0000000022020ef4                dm_mmc_send_cmd
 .text.mmc_send_cmd
                0x0000000022020f38        0x8 drivers/built-in.o
                0x0000000022020f38                mmc_send_cmd
 .text.mmc_select_hwpart
                0x0000000022020f40       0x58 drivers/built-in.o
 .text.find_mmc_device
                0x0000000022020f98       0x4c drivers/built-in.o
                0x0000000022020f98                find_mmc_device
 .text.get_mmc_num
                0x0000000022020fe4       0x18 drivers/built-in.o
                0x0000000022020fe4                get_mmc_num
 .text.mmc_get_blk_desc
                0x0000000022020ffc       0x28 drivers/built-in.o
                0x0000000022020ffc                mmc_get_blk_desc
 .text.mmc_do_preinit
                0x0000000022021024       0x68 drivers/built-in.o
                0x0000000022021024                mmc_do_preinit
 .text.print_mmc_devices
                0x000000002202108c       0xe8 drivers/built-in.o
                0x000000002202108c                print_mmc_devices
 .text.mmc_bind
                0x0000000022021174       0xc8 drivers/built-in.o
                0x0000000022021174                mmc_bind
 .text.mmc_berase
                0x000000002202123c      0x1bc drivers/built-in.o
                0x000000002202123c                mmc_berase
 .text.mmc_bwrite
                0x00000000220213f8      0x18c drivers/built-in.o
                0x00000000220213f8                mmc_bwrite
 .text.sdhci_reset.isra.3
                0x0000000022021584       0x64 drivers/built-in.o
 .text.sdhci_set_clock.isra.5
                0x00000000220215e8      0x1e8 drivers/built-in.o
 .text.sdhci_set_ios
                0x00000000220217d0      0x128 drivers/built-in.o
 .text.sdhci_send_command
                0x00000000220218f8      0x4b0 drivers/built-in.o
 .text.sdhci_probe
                0x0000000022021da8      0x194 drivers/built-in.o
                0x0000000022021da8                sdhci_probe
 .text.sdhci_setup_cfg
                0x0000000022021f3c      0x244 drivers/built-in.o
                0x0000000022021f3c                sdhci_setup_cfg
 .text.sdhci_bind
                0x0000000022022180        0x4 drivers/built-in.o
                0x0000000022022180                sdhci_bind
 .text.atmel_sdhci_probe
                0x0000000022022184      0x124 drivers/built-in.o
 .text.atmel_sdhci_bind
                0x00000000220222a8       0x20 drivers/built-in.o
 .text.w1_post_probe
                0x00000000220222c8      0x180 drivers/built-in.o
 .text.w1_get_bus
                0x0000000022022448       0x50 drivers/built-in.o
                0x0000000022022448                w1_get_bus
 .text.w1_get_device_family
                0x0000000022022498       0x10 drivers/built-in.o
                0x0000000022022498                w1_get_device_family
 .text.w1_reset_select
                0x00000000220224a8       0x98 drivers/built-in.o
                0x00000000220224a8                w1_reset_select
 .text.w1_read_byte
                0x0000000022022540       0x2c drivers/built-in.o
                0x0000000022022540                w1_read_byte
 .text.w1_read_buf
                0x000000002202256c       0x38 drivers/built-in.o
                0x000000002202256c                w1_read_buf
 .text.w1_write_byte
                0x00000000220225a4       0x38 drivers/built-in.o
                0x00000000220225a4                w1_write_byte
 .text.w1_gpio_write_bit
                0x00000000220225dc       0x48 drivers/built-in.o
 .text.w1_gpio_write_byte
                0x0000000022022624       0x30 drivers/built-in.o
 .text.w1_gpio_read_bit
                0x0000000022022654       0x50 drivers/built-in.o
 .text.w1_gpio_triplet
                0x00000000220226a4       0x70 drivers/built-in.o
 .text.w1_gpio_read_byte
                0x0000000022022714       0x34 drivers/built-in.o
 .text.w1_gpio_reset
                0x0000000022022748       0x78 drivers/built-in.o
 .text.w1_gpio_ofdata_to_platdata
                0x00000000220227c0       0x4c drivers/built-in.o
 .text.w1_eeprom_register_new_device
                0x000000002202280c       0x6c drivers/built-in.o
                0x000000002202280c                w1_eeprom_register_new_device
 .text.w1_eeprom_get_id
                0x0000000022022878       0x2c drivers/built-in.o
                0x0000000022022878                w1_eeprom_get_id
 .text.w1_eeprom_read_buf
                0x00000000220228a4       0x78 drivers/built-in.o
                0x00000000220228a4                w1_eeprom_read_buf
 .text.ds24xxx_read_buf
                0x000000002202291c       0x50 drivers/built-in.o
 .text.ds24xxx_probe
                0x000000002202296c       0x1c drivers/built-in.o
 .text.check_reserved
                0x0000000022022988       0x74 drivers/gpio/built-in.o
 .text.gpio_renumber
                0x00000000220229fc       0x84 drivers/gpio/built-in.o
 .text.gpio_pre_remove
                0x0000000022022a80       0x4c drivers/gpio/built-in.o
 .text.gpio_post_probe
                0x0000000022022acc       0x38 drivers/gpio/built-in.o
 .text.gpio_xlate_offs_flags
                0x0000000022022b04       0x40 drivers/gpio/built-in.o
                0x0000000022022b04                gpio_xlate_offs_flags
 .text.dm_gpio_request
                0x0000000022022b44       0x98 drivers/gpio/built-in.o
                0x0000000022022b44                dm_gpio_request
 .text.dm_gpio_requestf
                0x0000000022022bdc       0x44 drivers/gpio/built-in.o
 .text._dm_gpio_free
                0x0000000022022c20       0x74 drivers/gpio/built-in.o
                0x0000000022022c20                _dm_gpio_free
 .text.dm_gpio_get_value
                0x0000000022022c94       0x48 drivers/gpio/built-in.o
                0x0000000022022c94                dm_gpio_get_value
 .text.dm_gpio_set_value
                0x0000000022022cdc       0x54 drivers/gpio/built-in.o
                0x0000000022022cdc                dm_gpio_set_value
 .text.dm_gpio_set_dir_flags
                0x0000000022022d30       0x8c drivers/gpio/built-in.o
                0x0000000022022d30                dm_gpio_set_dir_flags
 .text.gpio_request_tail
                0x0000000022022dbc       0xe8 drivers/gpio/built-in.o
 .text.gpio_request_by_name
                0x0000000022022ea4       0x68 drivers/gpio/built-in.o
                0x0000000022022ea4                gpio_request_by_name
 .text.dm_gpio_free
                0x0000000022022f0c       0x10 drivers/gpio/built-in.o
                0x0000000022022f0c                dm_gpio_free
 .text.gpio_free_list
                0x0000000022022f1c       0x3c drivers/gpio/built-in.o
                0x0000000022022f1c                gpio_free_list
 .text.gpio_free_list_nodev
                0x0000000022022f58       0x10 drivers/gpio/built-in.o
                0x0000000022022f58                gpio_free_list_nodev
 .text.gpio_request_list_by_name_nodev
                0x0000000022022f68       0xb4 drivers/gpio/built-in.o
                0x0000000022022f68                gpio_request_list_by_name_nodev
 .text.gpio_request_list_by_name
                0x000000002202301c        0x8 drivers/gpio/built-in.o
                0x000000002202301c                gpio_request_list_by_name
 .text.atmel_pio4_port_base
                0x0000000022023024       0x68 drivers/gpio/built-in.o
 .text.atmel_pio4_config_io_func
                0x000000002202308c       0x58 drivers/gpio/built-in.o
 .text.atmel_pio4_bank_base
                0x00000000220230e4       0x18 drivers/gpio/built-in.o
 .text.atmel_pio4_get_function
                0x00000000220230fc       0x34 drivers/gpio/built-in.o
 .text.atmel_pio4_set_value
                0x0000000022023130       0x38 drivers/gpio/built-in.o
 .text.atmel_pio4_get_value
                0x0000000022023168       0x30 drivers/gpio/built-in.o
 .text.atmel_pio4_direction_output
                0x0000000022023198       0x54 drivers/gpio/built-in.o
 .text.atmel_pio4_direction_input
                0x00000000220231ec       0x3c drivers/gpio/built-in.o
 .text.atmel_pio4_probe
                0x0000000022023228       0x98 drivers/gpio/built-in.o
 .text.atmel_pio4_bind
                0x00000000220232c0        0x4 drivers/gpio/built-in.o
 .text.atmel_pio4_set_a_periph
                0x00000000220232c4        0xc drivers/gpio/built-in.o
                0x00000000220232c4                atmel_pio4_set_a_periph
 .text.atmel_pio4_set_pio_output
                0x00000000220232d0       0x70 drivers/gpio/built-in.o
                0x00000000220232d0                atmel_pio4_set_pio_output
 .text.i2c_setup_offset
                0x0000000022023340       0x58 drivers/i2c/built-in.o
 .text.dm_i2c_read
                0x0000000022023398      0x15c drivers/i2c/built-in.o
                0x0000000022023398                dm_i2c_read
 .text.dm_i2c_write
                0x00000000220234f4      0x1d4 drivers/i2c/built-in.o
                0x00000000220234f4                dm_i2c_write
 .text.i2c_get_chip
                0x00000000220236c8       0xf0 drivers/i2c/built-in.o
                0x00000000220236c8                i2c_get_chip
 .text.dm_i2c_probe
                0x00000000220237b8       0xa4 drivers/i2c/built-in.o
                0x00000000220237b8                dm_i2c_probe
 .text.dm_i2c_set_bus_speed
                0x000000002202385c       0x4c drivers/i2c/built-in.o
                0x000000002202385c                dm_i2c_set_bus_speed
 .text.i2c_post_probe
                0x00000000220238a8       0x3c drivers/i2c/built-in.o
 .text.dm_i2c_get_bus_speed
                0x00000000220238e4       0x34 drivers/i2c/built-in.o
                0x00000000220238e4                dm_i2c_get_bus_speed
 .text.i2c_set_chip_flags
                0x0000000022023918       0x50 drivers/i2c/built-in.o
                0x0000000022023918                i2c_set_chip_flags
 .text.i2c_get_chip_flags
                0x0000000022023968       0x1c drivers/i2c/built-in.o
                0x0000000022023968                i2c_get_chip_flags
 .text.i2c_set_chip_offset_len
                0x0000000022023984       0x20 drivers/i2c/built-in.o
                0x0000000022023984                i2c_set_chip_offset_len
 .text.i2c_get_chip_offset_len
                0x00000000220239a4       0x10 drivers/i2c/built-in.o
                0x00000000220239a4                i2c_get_chip_offset_len
 .text.i2c_deblock
                0x00000000220239b4      0x188 drivers/i2c/built-in.o
                0x00000000220239b4                i2c_deblock
 .text.i2c_chip_ofdata_to_platdata
                0x0000000022023b3c       0x54 drivers/i2c/built-in.o
                0x0000000022023b3c                i2c_chip_ofdata_to_platdata
 .text.i2c_child_post_bind
                0x0000000022023b90       0x30 drivers/i2c/built-in.o
 .text.at91_i2c_get_bus_speed
                0x0000000022023bc0       0x10 drivers/i2c/built-in.o
                0x0000000022023bc0                at91_i2c_get_bus_speed
 .text.at91_calc_i2c_clock
                0x0000000022023bd0       0xc8 drivers/i2c/built-in.o
 .text.at91_i2c_set_bus_speed
                0x0000000022023c98       0x38 drivers/i2c/built-in.o
 .text.at91_wait_for_xfer
                0x0000000022023cd0       0x68 drivers/i2c/built-in.o
 .text.at91_i2c_xfer
                0x0000000022023d38      0x1e0 drivers/i2c/built-in.o
 .text.at91_i2c_ofdata_to_platdata
                0x0000000022023f18       0x58 drivers/i2c/built-in.o
 .text.at91_i2c_probe
                0x0000000022023f70       0xb4 drivers/i2c/built-in.o
 .text.mtd_arg_off
                0x0000000022024024       0x68 drivers/mtd/built-in.o
                0x0000000022024024                mtd_arg_off
 .text.mtd_arg_off_size
                0x000000002202408c      0x118 drivers/mtd/built-in.o
                0x000000002202408c                mtd_arg_off_size
 .text.spi_flash_post_bind
                0x00000000220241a4        0x8 drivers/mtd/spi/built-in.o
 .text.spi_flash_read_dm
                0x00000000220241ac       0x1c drivers/mtd/spi/built-in.o
                0x00000000220241ac                spi_flash_read_dm
 .text.spi_flash_write_dm
                0x00000000220241c8       0x1c drivers/mtd/spi/built-in.o
                0x00000000220241c8                spi_flash_write_dm
 .text.spi_flash_erase_dm
                0x00000000220241e4       0x10 drivers/mtd/spi/built-in.o
                0x00000000220241e4                spi_flash_erase_dm
 .text.spi_flash_probe_bus_cs
                0x00000000220241f4       0x88 drivers/mtd/spi/built-in.o
                0x00000000220241f4                spi_flash_probe_bus_cs
 .text.spi_flash_std_erase
                0x000000002202427c       0x20 drivers/mtd/spi/built-in.o
 .text.spi_flash_std_write
                0x000000002202429c       0x60 drivers/mtd/spi/built-in.o
 .text.spi_flash_std_read
                0x00000000220242fc       0x28 drivers/mtd/spi/built-in.o
 .text.spi_flash_std_probe
                0x0000000022024324       0x70 drivers/mtd/spi/built-in.o
 .text.sst26_process_bpr
                0x0000000022024394       0x44 drivers/mtd/spi/built-in.o
 .text.stm_is_locked_sr
                0x00000000220243d8       0x84 drivers/mtd/spi/built-in.o
 .text.spi_flash_read_common
                0x000000002202445c       0x44 drivers/mtd/spi/built-in.o
                0x000000002202445c                spi_flash_read_common
 .text.read_sr  0x00000000220244a0       0x60 drivers/mtd/spi/built-in.o
 .text.stm_is_locked
                0x0000000022024500       0x4c drivers/mtd/spi/built-in.o
                0x0000000022024500                stm_is_locked
 .text.spi_flash_wait_till_ready
                0x000000002202454c       0xe8 drivers/mtd/spi/built-in.o
 .text.spi_flash_write_common
                0x0000000022024634       0x84 drivers/mtd/spi/built-in.o
                0x0000000022024634                spi_flash_write_common
 .text.spi_flash_cmd_erase_ops
                0x00000000220246b8       0xf8 drivers/mtd/spi/built-in.o
                0x00000000220246b8                spi_flash_cmd_erase_ops
 .text.spi_flash_cmd_write_ops
                0x00000000220247b0      0x104 drivers/mtd/spi/built-in.o
                0x00000000220247b0                spi_flash_cmd_write_ops
 .text.write_sr
                0x00000000220248b4       0x64 drivers/mtd/spi/built-in.o
 .text.stm_lock
                0x0000000022024918      0x174 drivers/mtd/spi/built-in.o
                0x0000000022024918                stm_lock
 .text.stm_unlock
                0x0000000022024a8c      0x15c drivers/mtd/spi/built-in.o
                0x0000000022024a8c                stm_unlock
 .text.sst_byte_write
                0x0000000022024be8       0x94 drivers/mtd/spi/built-in.o
 .text.sst26_lock_ctl
                0x0000000022024c7c      0x2a0 drivers/mtd/spi/built-in.o
 .text.sst26_is_locked
                0x0000000022024f1c       0x24 drivers/mtd/spi/built-in.o
 .text.sst26_unlock
                0x0000000022024f40        0x8 drivers/mtd/spi/built-in.o
 .text.sst26_lock
                0x0000000022024f48        0x8 drivers/mtd/spi/built-in.o
 .text.read_cr  0x0000000022024f50       0x60 drivers/mtd/spi/built-in.o
 .text.spi_flash_copy_mmap
                0x0000000022024fb0        0x4 drivers/mtd/spi/built-in.o
                0x0000000022024fb0                spi_flash_copy_mmap
 .text.spi_flash_cmd_read_ops
                0x0000000022024fb4      0x144 drivers/mtd/spi/built-in.o
                0x0000000022024fb4                spi_flash_cmd_read_ops
 .text.sst_write_wp
                0x00000000220250f8      0x164 drivers/mtd/spi/built-in.o
                0x00000000220250f8                sst_write_wp
 .text.sst_write_bp
                0x000000002202525c       0x80 drivers/mtd/spi/built-in.o
                0x000000002202525c                sst_write_bp
 .text.spi_flash_decode_fdt
                0x00000000220252dc       0x4c drivers/mtd/spi/built-in.o
                0x00000000220252dc                spi_flash_decode_fdt
 .text.spi_flash_scan
                0x0000000022025328      0x618 drivers/mtd/spi/built-in.o
                0x0000000022025328                spi_flash_scan
 .text.spi_flash_exec.isra.0
                0x0000000022025940      0x138 drivers/mtd/spi/built-in.o
 .text.spi_flash_cmd_read
                0x0000000022025a78        0x8 drivers/mtd/spi/built-in.o
                0x0000000022025a78                spi_flash_cmd_read
 .text.spi_flash_cmd
                0x0000000022025a80       0x70 drivers/mtd/spi/built-in.o
                0x0000000022025a80                spi_flash_cmd
 .text.spi_flash_cmd_write
                0x0000000022025af0        0x4 drivers/mtd/spi/built-in.o
                0x0000000022025af0                spi_flash_cmd_write
 .text.macb_mdio_write
                0x0000000022025af4       0x80 drivers/net/built-in.o
 .text.macb_mdio_read
                0x0000000022025b74       0x8c drivers/net/built-in.o
 .text.reclaim_rx_buffers
                0x0000000022025c00       0x88 drivers/net/built-in.o
 .text.macb_free_pkt
                0x0000000022025c88       0x18 drivers/net/built-in.o
 .text.macb_send
                0x0000000022025ca0      0x104 drivers/net/built-in.o
 .text.macb_eth_remove
                0x0000000022025da4       0x2c drivers/net/built-in.o
 .text.macb_stop
                0x0000000022025dd0       0x4c drivers/net/built-in.o
 .text.macb_write_hwaddr
                0x0000000022025e1c       0x60 drivers/net/built-in.o
 .text.macb_recv
                0x0000000022025e7c      0x12c drivers/net/built-in.o
 .text.macb_eth_probe
                0x0000000022025fa8      0x248 drivers/net/built-in.o
 .text.arch_get_mdio_control
                0x00000000220261f0        0x4 drivers/net/built-in.o
                0x00000000220261f0                arch_get_mdio_control
 .text.macb_miiphy_read
                0x00000000220261f4       0x4c drivers/net/built-in.o
                0x00000000220261f4                macb_miiphy_read
 .text.macb_miiphy_write
                0x0000000022026240       0x54 drivers/net/built-in.o
                0x0000000022026240                macb_miiphy_write
 .text.macb_linkspd_cb
                0x0000000022026294        0x8 drivers/net/built-in.o
                0x0000000022026294                macb_linkspd_cb
 .text.macb_start
                0x000000002202629c      0x514 drivers/net/built-in.o
 .text.macb_late_eth_ofdata_to_platdata
                0x00000000220267b0        0x8 drivers/net/built-in.o
                0x00000000220267b0                macb_late_eth_ofdata_to_platdata
 .text.macb_eth_ofdata_to_platdata
                0x00000000220267b8       0x28 drivers/net/built-in.o
 .text.genphy_shutdown
                0x00000000220267e0        0x8 drivers/net/phy/built-in.o
                0x00000000220267e0                genphy_shutdown
 .text.genphy_restart_aneg
                0x00000000220267e8       0x5c drivers/net/phy/built-in.o
                0x00000000220267e8                genphy_restart_aneg
 .text.genphy_config_aneg
                0x0000000022026844      0x1fc drivers/net/phy/built-in.o
                0x0000000022026844                genphy_config_aneg
 .text.genphy_config
                0x0000000022026a40       0xc4 drivers/net/phy/built-in.o
                0x0000000022026a40                genphy_config
 .text.genphy_update_link
                0x0000000022026b04      0x148 drivers/net/phy/built-in.o
                0x0000000022026b04                genphy_update_link
 .text.genphy_parse_link
                0x0000000022026c4c      0x198 drivers/net/phy/built-in.o
                0x0000000022026c4c                genphy_parse_link
 .text.genphy_startup
                0x0000000022026de4       0x20 drivers/net/phy/built-in.o
                0x0000000022026de4                genphy_startup
 .text.phy_init
                0x0000000022026e04        0x8 drivers/net/phy/built-in.o
                0x0000000022026e04                phy_init
 .text.get_phy_id
                0x0000000022026e0c       0x70 drivers/net/phy/built-in.o
                0x0000000022026e0c                get_phy_id
 .text.get_phy_device_by_mask
                0x0000000022026e7c      0x298 drivers/net/phy/built-in.o
 .text.phy_reset
                0x0000000022027114       0xbc drivers/net/phy/built-in.o
                0x0000000022027114                phy_reset
 .text.phy_find_by_mask
                0x00000000220271d0       0x4c drivers/net/phy/built-in.o
                0x00000000220271d0                phy_find_by_mask
 .text.phy_connect_dev
                0x000000002202721c       0x50 drivers/net/phy/built-in.o
                0x000000002202721c                phy_connect_dev
 .text.phy_connect
                0x000000002202726c       0x50 drivers/net/phy/built-in.o
                0x000000002202726c                phy_connect
 .text.board_phy_config
                0x00000000220272bc       0x1c drivers/net/phy/built-in.o
                0x00000000220272bc                board_phy_config
 .text.phy_config
                0x00000000220272d8        0x4 drivers/net/phy/built-in.o
                0x00000000220272d8                phy_config
 .text.phy_get_interface_by_name
                0x00000000220272dc       0x40 drivers/net/phy/built-in.o
                0x00000000220272dc                phy_get_interface_by_name
 .text._serial_putc
                0x000000002202731c       0x40 drivers/serial/built-in.o
 .text.__serial_getc
                0x000000002202735c       0x2c drivers/serial/built-in.o
 .text.__serial_tstc
                0x0000000022027388       0x24 drivers/serial/built-in.o
 .text.serial_stub_putc
                0x00000000220273ac        0x8 drivers/serial/built-in.o
 .text.serial_stub_getc
                0x00000000220273b4        0x8 drivers/serial/built-in.o
 .text.serial_stub_tstc
                0x00000000220273bc        0x8 drivers/serial/built-in.o
 .text.serial_pre_remove
                0x00000000220273c4        0x8 drivers/serial/built-in.o
 .text.serial_post_probe
                0x00000000220273cc       0xc0 drivers/serial/built-in.o
 .text.serial_stub_puts
                0x000000002202748c       0x24 drivers/serial/built-in.o
 .text.serial_init
                0x00000000220274b0      0x15c drivers/serial/built-in.o
                0x00000000220274b0                serial_init
 .text.serial_initialize
                0x000000002202760c        0x4 drivers/serial/built-in.o
                0x000000002202760c                serial_initialize
 .text.serial_putc
                0x0000000022027610       0x18 drivers/serial/built-in.o
                0x0000000022027610                serial_putc
 .text.serial_puts
                0x0000000022027628       0x30 drivers/serial/built-in.o
                0x0000000022027628                serial_puts
 .text.serial_getc
                0x0000000022027658       0x14 drivers/serial/built-in.o
                0x0000000022027658                serial_getc
 .text.serial_tstc
                0x000000002202766c       0x14 drivers/serial/built-in.o
                0x000000002202766c                serial_tstc
 .text.serial_setbrg
                0x0000000022027680       0x30 drivers/serial/built-in.o
                0x0000000022027680                serial_setbrg
 .text.on_baudrate
                0x00000000220276b0       0xf4 drivers/serial/built-in.o
 .text.serial_stdio_init
                0x00000000220277a4        0x4 drivers/serial/built-in.o
                0x00000000220277a4                serial_stdio_init
 .text.atmel_serial_pending
                0x00000000220277a8       0x2c drivers/serial/built-in.o
 .text.atmel_serial_putc
                0x00000000220277d4       0x3c drivers/serial/built-in.o
 .text.atmel_serial_getc
                0x0000000022027810       0x34 drivers/serial/built-in.o
 .text.atmel_serial_setbrg
                0x0000000022027844       0x3c drivers/serial/built-in.o
                0x0000000022027844                atmel_serial_setbrg
 .text._atmel_serial_init
                0x0000000022027880       0x60 drivers/serial/built-in.o
                0x0000000022027880                _atmel_serial_init
 .text.atmel_serial_probe
                0x00000000220278e0       0xb4 drivers/serial/built-in.o
 .text.printch  0x0000000022027994       0x4c drivers/serial/built-in.o
                0x0000000022027994                printch
 .text.printascii
                0x00000000220279e0       0x58 drivers/serial/built-in.o
                0x00000000220279e0                printascii
 .text.debug_uart_init
                0x0000000022027a38       0x34 drivers/serial/built-in.o
                0x0000000022027a38                debug_uart_init
 .text.spi_set_speed_mode
                0x0000000022027a6c       0x84 drivers/spi/built-in.o
 .text.spi_child_pre_probe
                0x0000000022027af0       0x3c drivers/spi/built-in.o
 .text.spi_post_probe
                0x0000000022027b2c       0x30 drivers/spi/built-in.o
 .text.dm_spi_claim_bus
                0x0000000022027b5c       0xa8 drivers/spi/built-in.o
                0x0000000022027b5c                dm_spi_claim_bus
 .text.dm_spi_release_bus
                0x0000000022027c04       0x1c drivers/spi/built-in.o
                0x0000000022027c04                dm_spi_release_bus
 .text.dm_spi_xfer
                0x0000000022027c20       0x3c drivers/spi/built-in.o
                0x0000000022027c20                dm_spi_xfer
 .text.dm_spi_is_flash_command_supported
                0x0000000022027c5c       0x24 drivers/spi/built-in.o
                0x0000000022027c5c                dm_spi_is_flash_command_supported
 .text.dm_spi_exec_flash_command
                0x0000000022027c80       0x24 drivers/spi/built-in.o
                0x0000000022027c80                dm_spi_exec_flash_command
 .text.spi_claim_bus
                0x0000000022027ca4        0x8 drivers/spi/built-in.o
                0x0000000022027ca4                spi_claim_bus
 .text.spi_release_bus
                0x0000000022027cac        0x8 drivers/spi/built-in.o
                0x0000000022027cac                spi_release_bus
 .text.spi_xfer
                0x0000000022027cb4        0x8 drivers/spi/built-in.o
                0x0000000022027cb4                spi_xfer
 .text.spi_is_flash_command_supported
                0x0000000022027cbc        0x8 drivers/spi/built-in.o
                0x0000000022027cbc                spi_is_flash_command_supported
 .text.spi_exec_flash_command
                0x0000000022027cc4        0x8 drivers/spi/built-in.o
                0x0000000022027cc4                spi_exec_flash_command
 .text.spi_find_chip_select
                0x0000000022027ccc       0x54 drivers/spi/built-in.o
                0x0000000022027ccc                spi_find_chip_select
 .text.spi_find_bus_and_cs
                0x0000000022027d20       0x58 drivers/spi/built-in.o
                0x0000000022027d20                spi_find_bus_and_cs
 .text.spi_get_bus_and_cs
                0x0000000022027d78      0x164 drivers/spi/built-in.o
                0x0000000022027d78                spi_get_bus_and_cs
 .text.spi_slave_ofdata_to_platdata
                0x0000000022027edc      0x154 drivers/spi/built-in.o
                0x0000000022027edc                spi_slave_ofdata_to_platdata
 .text.spi_child_post_bind
                0x0000000022028030       0x30 drivers/spi/built-in.o
 .text.atmel_spi_set_mode
                0x0000000022028060       0x18 drivers/spi/built-in.o
 .text.atmel_spi_set_speed
                0x0000000022028078       0x18 drivers/spi/built-in.o
 .text.atmel_spi_release_bus
                0x0000000022028090       0x24 drivers/spi/built-in.o
 .text.atmel_spi_claim_bus
                0x00000000220280b4       0xb0 drivers/spi/built-in.o
 .text.atmel_spi_xfer
                0x0000000022028164      0x19c drivers/spi/built-in.o
 .text.atmel_spi_probe
                0x0000000022028300      0x104 drivers/spi/built-in.o
 .text.atmel_qspi_xfer
                0x0000000022028404        0x8 drivers/spi/built-in.o
 .text.atmel_qspi_is_flash_command_supported
                0x000000002202840c        0x8 drivers/spi/built-in.o
 .text.atmel_qspi_set_mode
                0x0000000022028414       0x50 drivers/spi/built-in.o
 .text.atmel_qspi_set_speed
                0x0000000022028464       0x68 drivers/spi/built-in.o
 .text.atmel_qspi_ofdata_to_platdata
                0x00000000220284cc       0x6c drivers/spi/built-in.o
 .text.atmel_qspi_probe
                0x0000000022028538       0xc4 drivers/spi/built-in.o
 .text.atmel_qspi_exec_flash_command
                0x00000000220285fc      0x2e4 drivers/spi/built-in.o
 .text.usb_match_device
                0x00000000220288e0       0xe8 drivers/usb/host/built-in.o
 .text.usb_child_post_bind
                0x00000000220289c8       0x70 drivers/usb/host/built-in.o
 .text.usb_match_one_id_intf.isra.0
                0x0000000022028a38       0x94 drivers/usb/host/built-in.o
 .text.remove_inactive_children.isra.2
                0x0000000022028acc       0x70 drivers/usb/host/built-in.o
 .text.usb_disable_asynch
                0x0000000022028b3c       0x20 drivers/usb/host/built-in.o
                0x0000000022028b3c                usb_disable_asynch
 .text.submit_int_msg
                0x0000000022028b5c       0x4c drivers/usb/host/built-in.o
                0x0000000022028b5c                submit_int_msg
 .text.submit_control_msg
                0x0000000022028ba8       0x8c drivers/usb/host/built-in.o
                0x0000000022028ba8                submit_control_msg
 .text.submit_bulk_msg
                0x0000000022028c34       0x44 drivers/usb/host/built-in.o
                0x0000000022028c34                submit_bulk_msg
 .text.usb_alloc_device
                0x0000000022028c78       0x28 drivers/usb/host/built-in.o
                0x0000000022028c78                usb_alloc_device
 .text.usb_reset_root_port
                0x0000000022028ca0       0x28 drivers/usb/host/built-in.o
                0x0000000022028ca0                usb_reset_root_port
 .text.usb_update_hub_device
                0x0000000022028cc8       0x28 drivers/usb/host/built-in.o
                0x0000000022028cc8                usb_update_hub_device
 .text.usb_get_max_xfer_size
                0x0000000022028cf0       0x24 drivers/usb/host/built-in.o
                0x0000000022028cf0                usb_get_max_xfer_size
 .text.usb_stop
                0x0000000022028d14       0xc0 drivers/usb/host/built-in.o
                0x0000000022028d14                usb_stop
 .text.usb_get_bus
                0x0000000022028dd4       0x30 drivers/usb/host/built-in.o
                0x0000000022028dd4                usb_get_bus
 .text.usb_scan_device
                0x0000000022028e04      0x2a4 drivers/usb/host/built-in.o
                0x0000000022028e04                usb_scan_device
 .text.usb_scan_bus.isra.3
                0x00000000220290a8       0x74 drivers/usb/host/built-in.o
 .text.usb_init
                0x000000002202911c      0x1cc drivers/usb/host/built-in.o
                0x000000002202911c                usb_init
 .text.usb_child_pre_probe
                0x00000000220292e8       0x68 drivers/usb/host/built-in.o
                0x00000000220292e8                usb_child_pre_probe
 .text.ehci_get_port_speed
                0x0000000022029350        0x8 drivers/usb/host/built-in.o
 .text.ehci_set_usbmode
                0x0000000022029358       0x20 drivers/usb/host/built-in.o
 .text.ehci_get_portsc_register
                0x0000000022029378       0x28 drivers/usb/host/built-in.o
 .text.ehci_get_max_xfer_size
                0x00000000220293a0       0x10 drivers/usb/host/built-in.o
 .text.ehci_powerup_fixup
                0x00000000220293b0       0x1c drivers/usb/host/built-in.o
 .text.handshake
                0x00000000220293cc       0x50 drivers/usb/host/built-in.o
 .text.ehci_td_buffer
                0x000000002202941c       0x84 drivers/usb/host/built-in.o
 .text.ehci_shutdown
                0x00000000220294a0       0xd8 drivers/usb/host/built-in.o
 .text._ehci_poll_int_queue
                0x0000000022029578       0xbc drivers/usb/host/built-in.o
 .text.ehci_poll_int_queue
                0x0000000022029634        0xc drivers/usb/host/built-in.o
 .text.disable_periodic.isra.1
                0x0000000022029640       0x50 drivers/usb/host/built-in.o
 .text.enable_periodic.isra.2
                0x0000000022029690       0x58 drivers/usb/host/built-in.o
 .text.ehci_get_ctrl.isra.3
                0x00000000220296e8       0x10 drivers/usb/host/built-in.o
 .text._ehci_destroy_int_queue
                0x00000000220296f8       0xd8 drivers/usb/host/built-in.o
 .text.ehci_destroy_int_queue
                0x00000000220297d0        0xc drivers/usb/host/built-in.o
 .text.ehci_update_endpt2_dev_n_port.isra.4
                0x00000000220297dc       0x60 drivers/usb/host/built-in.o
 .text.ehci_submit_async
                0x000000002202983c      0x60c drivers/usb/host/built-in.o
 .text.ehci_submit_bulk_msg
                0x0000000022029e48       0x30 drivers/usb/host/built-in.o
 .text._ehci_create_int_queue.isra.5
                0x0000000022029e78      0x3a4 drivers/usb/host/built-in.o
 .text.ehci_create_int_queue
                0x000000002202a21c       0x18 drivers/usb/host/built-in.o
 .text.ehci_submit_int_msg
                0x000000002202a234       0xac drivers/usb/host/built-in.o
 .text.ehci_submit_control_msg
                0x000000002202a2e0      0x568 drivers/usb/host/built-in.o
 .text.ehci_register
                0x000000002202a848      0x398 drivers/usb/host/built-in.o
                0x000000002202a848                ehci_register
 .text.ehci_deregister
                0x000000002202abe0       0x20 drivers/usb/host/built-in.o
                0x000000002202abe0                ehci_deregister
 .text.ehci_atmel_probe
                0x000000002202ac00       0xac drivers/usb/host/built-in.o
 .text.env_get_yesno
                0x000000002202acac       0x3c env/built-in.o
                0x000000002202acac                env_get_yesno
 .text.env_get_default
                0x000000002202ace8       0x30 env/built-in.o
                0x000000002202ace8                env_get_default
 .text.set_default_env
                0x000000002202ad18       0xa0 env/built-in.o
                0x000000002202ad18                set_default_env
 .text.set_default_vars
                0x000000002202adb8       0x3c env/built-in.o
                0x000000002202adb8                set_default_vars
 .text.env_import
                0x000000002202adf4       0xc0 env/built-in.o
                0x000000002202adf4                env_import
 .text.env_export
                0x000000002202aeb4       0x88 env/built-in.o
                0x000000002202aeb4                env_export
 .text.env_relocate
                0x000000002202af3c       0x2c env/built-in.o
                0x000000002202af3c                env_relocate
 .text.env_complete
                0x000000002202af68       0xdc env/built-in.o
                0x000000002202af68                env_complete
 .text.env_get_location
                0x000000002202b044       0x3c env/built-in.o
                0x000000002202b044                env_get_location
 .text.env_driver_lookup
                0x000000002202b080       0x44 env/built-in.o
 .text.env_get_char_spec
                0x000000002202b0c4        0xc env/built-in.o
                0x000000002202b0c4                env_get_char_spec
 .text.env_get_char
                0x000000002202b0d0       0x20 env/built-in.o
                0x000000002202b0d0                env_get_char
 .text.env_load
                0x000000002202b0f0       0x94 env/built-in.o
                0x000000002202b0f0                env_load
 .text.env_save
                0x000000002202b184       0x94 env/built-in.o
                0x000000002202b184                env_save
 .text.env_init
                0x000000002202b218       0x88 env/built-in.o
                0x000000002202b218                env_init
 .text.regex_callback
                0x000000002202b2a0      0x140 env/built-in.o
 .text.env_attr_walk
                0x000000002202b3e0      0x120 env/built-in.o
                0x000000002202b3e0                env_attr_walk
 .text.env_attr_lookup
                0x000000002202b500       0x84 env/built-in.o
                0x000000002202b500                env_attr_lookup
 .text.clear_callback
                0x000000002202b584       0x10 env/built-in.o
 .text.find_env_callback
                0x000000002202b594       0x5c env/built-in.o
 .text.on_callbacks
                0x000000002202b5f0       0x50 env/built-in.o
 .text.set_callback
                0x000000002202b640       0x9c env/built-in.o
 .text.env_callback_init
                0x000000002202b6dc       0xc4 env/built-in.o
                0x000000002202b6dc                env_callback_init
 .text.skip_num
                0x000000002202b7a0       0x6c env/built-in.o
 .text.clear_flags
                0x000000002202b80c       0x10 env/built-in.o
 .text.on_flags
                0x000000002202b81c       0x50 env/built-in.o
 .text.env_flags_parse_vartype
                0x000000002202b86c       0x50 env/built-in.o
                0x000000002202b86c                env_flags_parse_vartype
 .text.env_flags_parse_varaccess
                0x000000002202b8bc       0x50 env/built-in.o
                0x000000002202b8bc                env_flags_parse_varaccess
 .text.set_flags
                0x000000002202b90c       0xb0 env/built-in.o
 .text.eth_validate_ethaddr_str
                0x000000002202b9bc       0x94 env/built-in.o
                0x000000002202b9bc                eth_validate_ethaddr_str
 .text.env_flags_init
                0x000000002202ba50       0xd8 env/built-in.o
                0x000000002202ba50                env_flags_init
 .text.env_flags_validate
                0x000000002202bb28      0x288 env/built-in.o
                0x000000002202bb28                env_flags_validate
 .text.env_fat_save
                0x000000002202bdb0       0xf0 env/built-in.o
 .text.env_fat_load
                0x000000002202bea0       0xf4 env/built-in.o
 .text.fs_probe_unsupported
                0x000000002202bf94       0x18 fs/built-in.o
 .text.fs_ls_unsupported
                0x000000002202bfac        0x8 fs/built-in.o
 .text.fs_exists_unsupported
                0x000000002202bfb4        0x8 fs/built-in.o
 .text.fs_size_unsupported
                0x000000002202bfbc        0x8 fs/built-in.o
 .text.fs_read_unsupported
                0x000000002202bfc4        0x8 fs/built-in.o
 .text.fs_close_unsupported
                0x000000002202bfcc        0x4 fs/built-in.o
 .text.fs_opendir_unsupported
                0x000000002202bfd0        0x8 fs/built-in.o
 .text.fs_get_info
                0x000000002202bfd8       0x34 fs/built-in.o
 .text.fs_close
                0x000000002202c00c       0x28 fs/built-in.o
 .text.fs_write_unsupported
                0x000000002202c034        0x8 fs/built-in.o
 .text.fs_uuid_unsupported
                0x000000002202c03c        0x8 fs/built-in.o
 .text.fs_set_blk_dev
                0x000000002202c044       0xcc fs/built-in.o
                0x000000002202c044                fs_set_blk_dev
 .text.fs_set_blk_dev_with_part
                0x000000002202c110       0x94 fs/built-in.o
                0x000000002202c110                fs_set_blk_dev_with_part
 .text.fs_ls    0x000000002202c1a4       0x3c fs/built-in.o
                0x000000002202c1a4                fs_ls
 .text.fs_exists
                0x000000002202c1e0       0x34 fs/built-in.o
                0x000000002202c1e0                fs_exists
 .text.fs_size  0x000000002202c214       0x3c fs/built-in.o
                0x000000002202c214                fs_size
 .text.fs_read  0x000000002202c250       0x60 fs/built-in.o
                0x000000002202c250                fs_read
 .text.fs_write
                0x000000002202c2b0       0x90 fs/built-in.o
                0x000000002202c2b0                fs_write
 .text.fs_opendir
                0x000000002202c340       0x7c fs/built-in.o
                0x000000002202c340                fs_opendir
 .text.fs_readdir
                0x000000002202c3bc       0x5c fs/built-in.o
                0x000000002202c3bc                fs_readdir
 .text.fs_closedir
                0x000000002202c418       0x38 fs/built-in.o
                0x000000002202c418                fs_closedir
 .text.fs_ls_generic
                0x000000002202c450       0xac fs/built-in.o
 .text.do_size  0x000000002202c4fc       0x60 fs/built-in.o
                0x000000002202c4fc                do_size
 .text.do_load  0x000000002202c55c      0x240 fs/built-in.o
                0x000000002202c55c                do_load
 .text.do_ls    0x000000002202c79c       0x68 fs/built-in.o
                0x000000002202c79c                do_ls
 .text.file_exists
                0x000000002202c804       0x2c fs/built-in.o
                0x000000002202c804                file_exists
 .text.get_fs   0x000000002202c830        0xc fs/built-in.o
                0x000000002202c830                get_fs
 .text.ext4fs_free_node
                0x000000002202c83c       0x20 fs/built-in.o
                0x000000002202c83c                ext4fs_free_node
 .text.ext4fs_read_file
                0x000000002202c85c      0x390 fs/built-in.o
                0x000000002202c85c                ext4fs_read_file
 .text.ext4fs_ls
                0x000000002202cbec       0x98 fs/built-in.o
                0x000000002202cbec                ext4fs_ls
 .text.ext4fs_exists
                0x000000002202cc84       0x1c fs/built-in.o
                0x000000002202cc84                ext4fs_exists
 .text.ext4fs_size
                0x000000002202cca0        0x4 fs/built-in.o
                0x000000002202cca0                ext4fs_size
 .text.ext4fs_read
                0x000000002202cca4       0x5c fs/built-in.o
                0x000000002202cca4                ext4fs_read
 .text.ext4fs_probe
                0x000000002202cd00       0x30 fs/built-in.o
                0x000000002202cd00                ext4fs_probe
 .text.ext4_read_file
                0x000000002202cd30       0x70 fs/built-in.o
                0x000000002202cd30                ext4_read_file
 .text.ext4fs_uuid
                0x000000002202cda0       0x38 fs/built-in.o
                0x000000002202cda0                ext4fs_uuid
 .text.ext4fs_bg_get_inode_table_id
                0x000000002202cdd8       0x40 fs/built-in.o
                0x000000002202cdd8                ext4fs_bg_get_inode_table_id
 .text.ext4fs_read_inode
                0x000000002202ce18      0x134 fs/built-in.o
                0x000000002202ce18                ext4fs_read_inode
 .text.read_allocated_block
                0x000000002202cf4c      0x8b8 fs/built-in.o
                0x000000002202cf4c                read_allocated_block
 .text.ext4fs_reinit_global
                0x000000002202d804       0xbc fs/built-in.o
                0x000000002202d804                ext4fs_reinit_global
 .text.ext4fs_close
                0x000000002202d8c0       0x5c fs/built-in.o
                0x000000002202d8c0                ext4fs_close
 .text.ext4fs_iterate_dir
                0x000000002202d91c      0x2bc fs/built-in.o
                0x000000002202d91c                ext4fs_iterate_dir
 .text.ext4fs_find_file1
                0x000000002202dbd8      0x2bc fs/built-in.o
 .text.ext4fs_find_file
                0x000000002202de94       0x78 fs/built-in.o
                0x000000002202de94                ext4fs_find_file
 .text.ext4fs_open
                0x000000002202df0c       0xac fs/built-in.o
                0x000000002202df0c                ext4fs_open
 .text.ext4fs_mount
                0x000000002202dfb8       0xe0 fs/built-in.o
                0x000000002202dfb8                ext4fs_mount
 .text.ext4fs_set_blk_dev
                0x000000002202e098       0x6c fs/built-in.o
                0x000000002202e098                ext4fs_set_blk_dev
 .text.ext4fs_devread
                0x000000002202e104       0x40 fs/built-in.o
                0x000000002202e104                ext4fs_devread
 .text.ext4_read_superblock
                0x000000002202e144       0x38 fs/built-in.o
                0x000000002202e144                ext4_read_superblock
 .text.downcase
                0x000000002202e17c       0x38 fs/built-in.o
 .text.mkcksum  0x000000002202e1b4       0x50 fs/built-in.o
 .text.disk_read
                0x000000002202e204       0x60 fs/built-in.o
 .text.get_name
                0x000000002202e264       0xe0 fs/built-in.o
 .text.get_cluster
                0x000000002202e344      0x17c fs/built-in.o
 .text.read_bootsectandvi
                0x000000002202e4c0      0x124 fs/built-in.o
 .text.fat_itr_root
                0x000000002202e5e4      0x154 fs/built-in.o
 .text.disk_write
                0x000000002202e738       0x94 fs/built-in.o
 .text.flush_dirty_fat_buffer
                0x000000002202e7cc       0xa8 fs/built-in.o
 .text.get_fatent
                0x000000002202e874      0x184 fs/built-in.o
 .text.next_dent
                0x000000002202e9f8      0x130 fs/built-in.o
 .text.find_empty_cluster
                0x000000002202eb28       0x2c fs/built-in.o
 .text.set_fatent_value
                0x000000002202eb54      0x1bc fs/built-in.o
 .text.set_cluster
                0x000000002202ed10      0x17c fs/built-in.o
 .text.set_name
                0x000000002202ee8c      0x140 fs/built-in.o
 .text.check_overflow
                0x000000002202efcc       0x7c fs/built-in.o
 .text.slot2str
                0x000000002202f048       0xc4 fs/built-in.o
 .text.fat_itr_next
                0x000000002202f10c      0x134 fs/built-in.o
 .text.fat_itr_resolve
                0x000000002202f240      0x178 fs/built-in.o
 .text.flush_dir_table.constprop.8
                0x000000002202f3b8       0xd4 fs/built-in.o
 .text.do_fat_write
                0x000000002202f48c      0xbfc fs/built-in.o
 .text.fat_set_blk_dev
                0x0000000022030088       0xcc fs/built-in.o
                0x0000000022030088                fat_set_blk_dev
 .text.file_fat_detectfs
                0x0000000022030154      0x148 fs/built-in.o
                0x0000000022030154                file_fat_detectfs
 .text.fat_exists
                0x000000002203029c       0x6c fs/built-in.o
                0x000000002203029c                fat_exists
 .text.fat_size
                0x0000000022030308       0xb8 fs/built-in.o
                0x0000000022030308                fat_size
 .text.file_fat_read_at
                0x00000000220303c0      0x3e4 fs/built-in.o
                0x00000000220303c0                file_fat_read_at
 .text.file_fat_read
                0x00000000220307a4       0x38 fs/built-in.o
                0x00000000220307a4                file_fat_read
 .text.fat_read_file
                0x00000000220307dc       0x48 fs/built-in.o
                0x00000000220307dc                fat_read_file
 .text.fat_opendir
                0x0000000022030824       0x80 fs/built-in.o
                0x0000000022030824                fat_opendir
 .text.fat_readdir
                0x00000000220308a4       0x74 fs/built-in.o
                0x00000000220308a4                fat_readdir
 .text.fat_closedir
                0x0000000022030918       0x1c fs/built-in.o
                0x0000000022030918                fat_closedir
 .text.fat_close
                0x0000000022030934        0x4 fs/built-in.o
                0x0000000022030934                fat_close
 .text.file_fat_write
                0x0000000022030938       0x5c fs/built-in.o
                0x0000000022030938                file_fat_write
 .text.fs_devread
                0x0000000022030994      0x21c fs/built-in.o
                0x0000000022030994                fs_devread
 .text.efi_uc_destroy
                0x0000000022030bb0       0x18 lib/built-in.o
 .text.efi_uc_init
                0x0000000022030bc8       0x18 lib/built-in.o
 .text.check_node_type
                0x0000000022030be0       0x8c lib/built-in.o
 .text.efi_uc_start
                0x0000000022030c6c       0xd8 lib/built-in.o
 .text.efi_uc_supported
                0x0000000022030d44       0xc0 lib/built-in.o
 .text.disconnect_child
                0x0000000022030e04       0x70 lib/built-in.o
 .text.efi_uc_stop
                0x0000000022030e74      0x14c lib/built-in.o
 .text.efi_driver_init
                0x0000000022030fc0      0x10c lib/built-in.o
                0x0000000022030fc0                efi_driver_init
 .text.efi_bl_write
                0x00000000220310cc       0x64 lib/built-in.o
 .text.efi_bl_read
                0x0000000022031130       0x64 lib/built-in.o
 .text.efi_bl_bind
                0x0000000022031194      0x124 lib/built-in.o
 .text.efi_set_code_and_data_type
                0x00000000220312b8       0x84 lib/built-in.o
 .text.efi_print_image_info
                0x000000002203133c       0xa0 lib/built-in.o
                0x000000002203133c                efi_print_image_info
 .text.efi_print_image_infos
                0x00000000220313dc       0x68 lib/built-in.o
                0x00000000220313dc                efi_print_image_infos
 .text.efi_load_pe
                0x0000000022031444      0x3a8 lib/built-in.o
                0x0000000022031444                efi_load_pe
 .text.efi_is_event
                0x00000000220317ec       0x40 lib/built-in.o
 .text.__efi_entry_check
                0x000000002203182c       0x38 lib/built-in.o
                0x000000002203182c                __efi_entry_check
 .text.__efi_exit_check
                0x0000000022031864       0x2c lib/built-in.o
                0x0000000022031864                __efi_exit_check
 .text.efi_queue_event
                0x0000000022031890       0x60 lib/built-in.o
 .text.efi_set_mem
                0x00000000220318f0       0x28 lib/built-in.o
 .text.efi_copy_mem
                0x0000000022031918       0x24 lib/built-in.o
 .text.efi_calculate_crc32
                0x000000002203193c       0x30 lib/built-in.o
 .text.efi_set_watchdog_timer
                0x000000002203196c       0x24 lib/built-in.o
 .text.efi_stall
                0x0000000022031990       0x20 lib/built-in.o
 .text.efi_get_next_monotonic_count
                0x00000000220319b0       0x34 lib/built-in.o
 .text.efi_start_image
                0x00000000220319e4       0xac lib/built-in.o
 .text.efi_register_protocol_notify
                0x0000000022031a90       0x14 lib/built-in.o
 .text.efi_close_event
                0x0000000022031aa4       0x50 lib/built-in.o
 .text.efi_free_pool_ext
                0x0000000022031af4       0x24 lib/built-in.o
 .text.efi_allocate_pool_ext
                0x0000000022031b18       0x2c lib/built-in.o
 .text.efi_get_memory_map_ext
                0x0000000022031b44       0x40 lib/built-in.o
 .text.efi_free_pages_ext
                0x0000000022031b84       0x34 lib/built-in.o
 .text.efi_allocate_pages_ext
                0x0000000022031bb8       0x34 lib/built-in.o
 .text.efi_raise_tpl
                0x0000000022031bec       0x34 lib/built-in.o
 .text.efi_save_gd
                0x0000000022031c20       0x10 lib/built-in.o
                0x0000000022031c20                efi_save_gd
 .text.efi_restore_gd
                0x0000000022031c30       0x18 lib/built-in.o
                0x0000000022031c30                efi_restore_gd
 .text.efi_exit
                0x0000000022031c48       0x30 lib/built-in.o
 .text.efi_signal_event
                0x0000000022031c78       0xf4 lib/built-in.o
                0x0000000022031c78                efi_signal_event
 .text.efi_exit_boot_services
                0x0000000022031d6c      0x114 lib/built-in.o
 .text.efi_signal_event_ext
                0x0000000022031e80       0x40 lib/built-in.o
 .text.efi_add_handle
                0x0000000022031ec0       0x38 lib/built-in.o
                0x0000000022031ec0                efi_add_handle
 .text.efi_create_handle
                0x0000000022031ef8       0x38 lib/built-in.o
                0x0000000022031ef8                efi_create_handle
 .text.efi_create_event
                0x0000000022031f30       0xbc lib/built-in.o
                0x0000000022031f30                efi_create_event
 .text.efi_create_event_ex
                0x0000000022031fec       0x48 lib/built-in.o
                0x0000000022031fec                efi_create_event_ex
 .text.efi_create_event_ext
                0x0000000022032034       0x48 lib/built-in.o
 .text.efi_timer_check
                0x000000002203207c       0xa0 lib/built-in.o
                0x000000002203207c                efi_timer_check
 .text.efi_check_event
                0x000000002203211c       0x7c lib/built-in.o
 .text.efi_wait_for_event
                0x0000000022032198       0xe8 lib/built-in.o
 .text.efi_restore_tpl
                0x0000000022032280       0x30 lib/built-in.o
 .text.efi_set_timer
                0x00000000220322b0      0x104 lib/built-in.o
                0x00000000220322b0                efi_set_timer
 .text.efi_set_timer_ext
                0x00000000220323b4       0x34 lib/built-in.o
 .text.efi_search_obj
                0x00000000220323e8       0x38 lib/built-in.o
                0x00000000220323e8                efi_search_obj
 .text.efi_search_protocol
                0x0000000022032420       0x7c lib/built-in.o
                0x0000000022032420                efi_search_protocol
 .text.efi_remove_protocol
                0x000000002203249c       0x74 lib/built-in.o
                0x000000002203249c                efi_remove_protocol
 .text.efi_locate_protocol
                0x0000000022032510       0x90 lib/built-in.o
 .text.efi_open_protocol_information
                0x00000000220325a0       0xdc lib/built-in.o
 .text.efi_close_protocol
                0x000000002203267c       0xa0 lib/built-in.o
 .text.efi_locate_handle
                0x000000002203271c      0x128 lib/built-in.o
 .text.efi_locate_handle_buffer
                0x0000000022032844       0xc0 lib/built-in.o
 .text.efi_locate_device_path
                0x0000000022032904      0x144 lib/built-in.o
 .text.efi_locate_handle_ext
                0x0000000022032a48       0x40 lib/built-in.o
 .text.efi_remove_all_protocols
                0x0000000022032a88       0x54 lib/built-in.o
                0x0000000022032a88                efi_remove_all_protocols
 .text.efi_delete_handle
                0x0000000022032adc       0x38 lib/built-in.o
                0x0000000022032adc                efi_delete_handle
 .text.efi_protocols_per_handle
                0x0000000022032b14       0xe0 lib/built-in.o
 .text.efi_disconnect_controller
                0x0000000022032bf4      0x254 lib/built-in.o
 .text.efi_open_protocol
                0x0000000022032e48      0x270 lib/built-in.o
 .text.efi_bind_controller
                0x00000000220330b8       0xbc lib/built-in.o
 .text.efi_handle_protocol
                0x0000000022033174       0x20 lib/built-in.o
 .text.efi_disconnect_all_drivers
                0x0000000022033194      0x170 lib/built-in.o
 .text.efi_connect_controller
                0x0000000022033304      0x1c4 lib/built-in.o
 .text.efi_unload_image
                0x00000000220334c8       0x3c lib/built-in.o
 .text.efi_uninstall_protocol_interface
                0x0000000022033504       0xdc lib/built-in.o
 .text.efi_add_protocol
                0x00000000220335e0       0xa0 lib/built-in.o
                0x00000000220335e0                efi_add_protocol
 .text.efi_install_protocol_interface
                0x0000000022033680       0x7c lib/built-in.o
 .text.efi_uninstall_multiple_protocol_interfaces
                0x00000000220336fc       0xd8 lib/built-in.o
 .text.efi_install_multiple_protocol_interfaces
                0x00000000220337d4       0xd8 lib/built-in.o
 .text.efi_reinstall_protocol_interface
                0x00000000220338ac       0x90 lib/built-in.o
 .text.efi_install_configuration_table
                0x000000002203393c      0x140 lib/built-in.o
                0x000000002203393c                efi_install_configuration_table
 .text.efi_install_configuration_table_ext
                0x0000000022033a7c       0x24 lib/built-in.o
 .text.efi_setup_loaded_image
                0x0000000022033aa0       0xcc lib/built-in.o
                0x0000000022033aa0                efi_setup_loaded_image
 .text.efi_load_image_from_path
                0x0000000022033b6c      0x124 lib/built-in.o
                0x0000000022033b6c                efi_load_image_from_path
 .text.efi_load_image
                0x0000000022033c90      0x13c lib/built-in.o
 .text.efi_get_time_boottime
                0x0000000022033dcc        0x8 lib/built-in.o
 .text.efi_reset_system_boottime
                0x0000000022033dd4       0x8c lib/built-in.o
 .text.efi_reset_system_init
                0x0000000022033e60        0x8 lib/built-in.o
                0x0000000022033e60                efi_reset_system_init
 .text.efi_get_time_init
                0x0000000022033e68        0x8 lib/built-in.o
                0x0000000022033e68                efi_get_time_init
 .text.efi_runtime_relocate
                0x0000000022033e70      0x110 lib/built-in.o
                0x0000000022033e70                efi_runtime_relocate
 .text.efi_set_virtual_address_map
                0x0000000022033f80      0x168 lib/built-in.o
 .text.efi_key_notify
                0x00000000220340e8        0x4 lib/built-in.o
 .text.efi_cout_enable_cursor
                0x00000000220340ec       0x30 lib/built-in.o
 .text.efi_cout_set_cursor_position
                0x000000002203411c       0x40 lib/built-in.o
 .text.efi_cout_clear_screen
                0x000000002203415c       0x20 lib/built-in.o
 .text.efi_cout_set_attribute
                0x000000002203417c       0x5c lib/built-in.o
 .text.efi_cout_test_string
                0x00000000220341d8       0x14 lib/built-in.o
 .text.efi_cout_reset
                0x00000000220341ec       0x14 lib/built-in.o
 .text.efi_cin_reset
                0x0000000022034200       0x14 lib/built-in.o
 .text.efi_cout_output_string
                0x0000000022034214      0x12c lib/built-in.o
 .text.efi_console_timer_notify
                0x0000000022034340       0x34 lib/built-in.o
 .text.efi_cout_set_mode
                0x0000000022034374       0x48 lib/built-in.o
 .text.efi_cout_query_mode
                0x00000000220343bc       0x80 lib/built-in.o
 .text.skip_modifiers.constprop.5
                0x000000002203443c       0x60 lib/built-in.o
 .text.efi_cin_read_key_stroke
                0x000000002203449c      0x254 lib/built-in.o
 .text.efi_console_register
                0x00000000220346f0      0x2b0 lib/built-in.o
                0x00000000220346f0                efi_console_register
 .text.efi_mem_cmp
                0x00000000220349a0       0x30 lib/built-in.o
 .text.efi_find_free_memory
                0x00000000220349d0       0xb8 lib/built-in.o
 .text.efi_add_memory_map
                0x0000000022034a88      0x2ec lib/built-in.o
                0x0000000022034a88                efi_add_memory_map
 .text.efi_allocate_pages
                0x0000000022034d74       0xa8 lib/built-in.o
                0x0000000022034d74                efi_allocate_pages
 .text.efi_alloc
                0x0000000022034e1c       0x54 lib/built-in.o
                0x0000000022034e1c                efi_alloc
 .text.efi_free_pages
                0x0000000022034e70       0x38 lib/built-in.o
                0x0000000022034e70                efi_free_pages
 .text.efi_allocate_pool
                0x0000000022034ea8       0x58 lib/built-in.o
                0x0000000022034ea8                efi_allocate_pool
 .text.efi_free_pool
                0x0000000022034f00       0x20 lib/built-in.o
                0x0000000022034f00                efi_free_pool
 .text.efi_get_memory_map
                0x0000000022034f20       0xc0 lib/built-in.o
                0x0000000022034f20                efi_get_memory_map
 .text.efi_add_known_memory
                0x0000000022034fe0       0x68 lib/built-in.o
                0x0000000022034fe0                efi_add_known_memory
 .text.efi_memory_init
                0x0000000022035048       0x88 lib/built-in.o
                0x0000000022035048                efi_memory_init
 .text.efi_str_to_u16
                0x00000000220350d0       0x64 lib/built-in.o
 .text.efi_convert_single_device_node_to_text
                0x0000000022035134      0x488 lib/built-in.o
 .text.efi_convert_device_path_to_text
                0x00000000220355bc       0x80 lib/built-in.o
 .text.efi_convert_device_node_to_text
                0x000000002203563c       0x40 lib/built-in.o
 .text.efi_dp_str
                0x000000002203567c       0x2c lib/built-in.o
                0x000000002203567c                efi_dp_str
 .text.dp_size  0x00000000220356a8       0xac lib/built-in.o
 .text.dp_alloc
                0x0000000022035754       0x3c lib/built-in.o
 .text.dp_part_size
                0x0000000022035790       0x50 lib/built-in.o
 .text.dp_part_node
                0x00000000220357e0      0x1dc lib/built-in.o
 .text.dp_fill  0x00000000220359bc      0x210 lib/built-in.o
 .text.dp_part_fill
                0x0000000022035bcc       0x64 lib/built-in.o
 .text.efi_dp_next
                0x0000000022035c30       0x3c lib/built-in.o
                0x0000000022035c30                efi_dp_next
 .text.efi_dp_match
                0x0000000022035c6c       0x70 lib/built-in.o
                0x0000000022035c6c                efi_dp_match
 .text.efi_dp_last_node
                0x0000000022035cdc       0x44 lib/built-in.o
                0x0000000022035cdc                efi_dp_last_node
 .text.efi_dp_instance_size
                0x0000000022035d20       0x4c lib/built-in.o
                0x0000000022035d20                efi_dp_instance_size
 .text.find_obj
                0x0000000022035d6c      0x104 lib/built-in.o
 .text.efi_dp_find_obj
                0x0000000022035e70       0x4c lib/built-in.o
                0x0000000022035e70                efi_dp_find_obj
 .text.efi_dp_size
                0x0000000022035ebc       0x40 lib/built-in.o
                0x0000000022035ebc                efi_dp_size
 .text.efi_dp_dup
                0x0000000022035efc       0x40 lib/built-in.o
                0x0000000022035efc                efi_dp_dup
 .text.efi_dp_append
                0x0000000022035f3c       0x88 lib/built-in.o
                0x0000000022035f3c                efi_dp_append
 .text.efi_dp_append_node
                0x0000000022035fc4       0xd4 lib/built-in.o
                0x0000000022035fc4                efi_dp_append_node
 .text.efi_dp_create_device_node
                0x0000000022036098       0x34 lib/built-in.o
                0x0000000022036098                efi_dp_create_device_node
 .text.efi_dp_append_instance
                0x00000000220360cc       0x98 lib/built-in.o
                0x00000000220360cc                efi_dp_append_instance
 .text.efi_dp_get_next_instance
                0x0000000022036164       0x8c lib/built-in.o
                0x0000000022036164                efi_dp_get_next_instance
 .text.efi_dp_is_multi_instance
                0x00000000220361f0       0x3c lib/built-in.o
                0x00000000220361f0                efi_dp_is_multi_instance
 .text.efi_dp_from_part
                0x000000002203622c       0x44 lib/built-in.o
                0x000000002203622c                efi_dp_from_part
 .text.efi_dp_part_node
                0x0000000022036270       0x38 lib/built-in.o
                0x0000000022036270                efi_dp_part_node
 .text.efi_dp_from_file
                0x00000000220362a8       0xbc lib/built-in.o
                0x00000000220362a8                efi_dp_from_file
 .text.efi_dp_from_eth
                0x0000000022036364       0x48 lib/built-in.o
                0x0000000022036364                efi_dp_from_eth
 .text.efi_dp_from_mem
                0x00000000220363ac       0xf0 lib/built-in.o
                0x00000000220363ac                efi_dp_from_mem
 .text.efi_dp_split_file_path
                0x000000002203649c       0x8c lib/built-in.o
                0x000000002203649c                efi_dp_split_file_path
 .text.create_device_node
                0x0000000022036528       0x34 lib/built-in.o
 .text.is_device_path_multi_instance
                0x000000002203655c       0x24 lib/built-in.o
 .text.get_next_device_path_instance
                0x0000000022036580       0x2c lib/built-in.o
 .text.append_device_path_instance
                0x00000000220365ac       0x2c lib/built-in.o
 .text.append_device_node
                0x00000000220365d8       0x2c lib/built-in.o
 .text.append_device_path
                0x0000000022036604       0x2c lib/built-in.o
 .text.duplicate_device_path
                0x0000000022036630       0x24 lib/built-in.o
 .text.get_device_path_size
                0x0000000022036654       0x2c lib/built-in.o
 .text.efi_file_flush
                0x0000000022036680       0x14 lib/built-in.o
 .text.efi_file_setinfo
                0x0000000022036694       0x14 lib/built-in.o
 .text.efi_file_getpos
                0x00000000220366a8       0x3c lib/built-in.o
 .text.efi_file_setpos
                0x00000000220366e4       0x4c lib/built-in.o
 .text.efi_file_delete
                0x0000000022036730       0x28 lib/built-in.o
 .text.set_blk_dev.isra.0
                0x0000000022036758        0xc lib/built-in.o
 .text.efi_file_getinfo
                0x0000000022036764      0x1ec lib/built-in.o
 .text.efi_file_write
                0x0000000022036950       0x88 lib/built-in.o
 .text.efi_file_read
                0x00000000220369d8      0x1c8 lib/built-in.o
 .text.file_open
                0x0000000022036ba0      0x284 lib/built-in.o
 .text.efi_open_volume
                0x0000000022036e24       0x3c lib/built-in.o
 .text.efi_file_open
                0x0000000022036e60       0x54 lib/built-in.o
 .text.efi_file_close
                0x0000000022036eb4       0x28 lib/built-in.o
 .text.efi_file_from_path
                0x0000000022036edc      0x124 lib/built-in.o
                0x0000000022036edc                efi_file_from_path
 .text.efi_simple_file_system
                0x0000000022037000       0x44 lib/built-in.o
                0x0000000022037000                efi_simple_file_system
 .text.hex      0x0000000022037044       0x3c lib/built-in.o
 .text.efi_to_native
                0x0000000022037080       0x60 lib/built-in.o
 .text.prefix   0x00000000220370e0       0x38 lib/built-in.o
 .text.parse_attr.part.0
                0x0000000022037118       0xa4 lib/built-in.o
 .text.efi_get_variable
                0x00000000220371bc      0x1ec lib/built-in.o
                0x00000000220371bc                efi_get_variable
 .text.efi_get_next_variable_name
                0x00000000220373a8       0x14 lib/built-in.o
                0x00000000220373a8                efi_get_next_variable_name
 .text.efi_set_variable
                0x00000000220373bc      0x224 lib/built-in.o
                0x00000000220373bc                efi_set_variable
 .text.get_var.constprop.0
                0x00000000220375e0       0xb4 lib/built-in.o
 .text.efi_bootmgr_load
                0x0000000022037694      0x180 lib/built-in.o
                0x0000000022037694                efi_bootmgr_load
 .text.efi_watchdog_timer_notify
                0x0000000022037814       0x44 lib/built-in.o
 .text.efi_set_watchdog
                0x0000000022037858       0x30 lib/built-in.o
                0x0000000022037858                efi_set_watchdog
 .text.efi_watchdog_register
                0x0000000022037888       0x7c lib/built-in.o
                0x0000000022037888                efi_watchdog_register
 .text.efi_disk_flush_blocks
                0x0000000022037904       0x14 lib/built-in.o
 .text.efi_disk_reset
                0x0000000022037918       0x14 lib/built-in.o
 .text.efi_disk_add_dev.isra.0.part.1
                0x000000002203792c      0x198 lib/built-in.o
 .text.efi_disk_read_blocks
                0x0000000022037ac4       0x70 lib/built-in.o
 .text.efi_disk_write_blocks
                0x0000000022037b34       0x70 lib/built-in.o
 .text.efi_fs_from_path
                0x0000000022037ba4       0x74 lib/built-in.o
                0x0000000022037ba4                efi_fs_from_path
 .text.efi_disk_create_partitions
                0x0000000022037c18       0xec lib/built-in.o
                0x0000000022037c18                efi_disk_create_partitions
 .text.efi_disk_register
                0x0000000022037d04      0x11c lib/built-in.o
                0x0000000022037d04                efi_disk_register
 .text.efi_net_push
                0x0000000022037e20       0x24 lib/built-in.o
 .text.efi_network_timer_notify
                0x0000000022037e44       0x40 lib/built-in.o
 .text.efi_net_nvdata
                0x0000000022037e84       0x14 lib/built-in.o
 .text.efi_net_mcastiptomac
                0x0000000022037e98       0x14 lib/built-in.o
 .text.efi_net_statistics
                0x0000000022037eac       0x14 lib/built-in.o
 .text.efi_net_station_address
                0x0000000022037ec0       0x14 lib/built-in.o
 .text.efi_net_receive_filters
                0x0000000022037ed4       0x14 lib/built-in.o
 .text.efi_net_reset
                0x0000000022037ee8       0x14 lib/built-in.o
 .text.efi_net_start
                0x0000000022037efc       0x14 lib/built-in.o
 .text.efi_net_get_status
                0x0000000022037f10       0x64 lib/built-in.o
 .text.efi_net_initialize
                0x0000000022037f74       0x48 lib/built-in.o
 .text.efi_net_transmit
                0x0000000022037fbc       0x50 lib/built-in.o
 .text.efi_net_receive
                0x000000002203800c      0x134 lib/built-in.o
 .text.efi_net_shutdown
                0x0000000022038140       0x14 lib/built-in.o
 .text.efi_net_stop
                0x0000000022038154       0x14 lib/built-in.o
 .text.efi_net_set_dhcp_ack
                0x0000000022038168       0x48 lib/built-in.o
                0x0000000022038168                efi_net_set_dhcp_ack
 .text.efi_net_register
                0x00000000220381b0      0x254 lib/built-in.o
                0x00000000220381b0                efi_net_register
 .text.efi_smbios_register
                0x0000000022038404       0x4c lib/built-in.o
                0x0000000022038404                efi_smbios_register
 .text.fdt_check_header
                0x0000000022038450       0x74 lib/built-in.o
                0x0000000022038450                fdt_check_header
 .text.fdt_offset_ptr
                0x00000000220384c4       0x6c lib/built-in.o
                0x00000000220384c4                fdt_offset_ptr
 .text.fdt_next_tag
                0x0000000022038530      0x11c lib/built-in.o
                0x0000000022038530                fdt_next_tag
 .text.fdt_check_node_offset_
                0x000000002203864c       0x3c lib/built-in.o
                0x000000002203864c                fdt_check_node_offset_
 .text.fdt_check_prop_offset_
                0x0000000022038688       0x3c lib/built-in.o
                0x0000000022038688                fdt_check_prop_offset_
 .text.fdt_next_node
                0x00000000220386c4       0xbc lib/built-in.o
                0x00000000220386c4                fdt_next_node
 .text.fdt_first_subnode
                0x0000000022038780       0x34 lib/built-in.o
                0x0000000022038780                fdt_first_subnode
 .text.fdt_next_subnode
                0x00000000220387b4       0x50 lib/built-in.o
                0x00000000220387b4                fdt_next_subnode
 .text.fdt_find_string_
                0x0000000022038804       0x58 lib/built-in.o
                0x0000000022038804                fdt_find_string_
 .text.fdt_move
                0x000000002203885c       0x44 lib/built-in.o
                0x000000002203885c                fdt_move
 .text.fdt_setprop_inplace_namelen_partial
                0x00000000220388a0       0x54 lib/built-in.o
                0x00000000220388a0                fdt_setprop_inplace_namelen_partial
 .text.fdt_setprop_inplace
                0x00000000220388f4       0x74 lib/built-in.o
                0x00000000220388f4                fdt_setprop_inplace
 .text.fdt_node_end_offset_
                0x0000000022038968       0x44 lib/built-in.o
                0x0000000022038968                fdt_node_end_offset_
 .text.fdt_strerror
                0x00000000220389ac       0x58 lib/built-in.o
                0x00000000220389ac                fdt_strerror
 .text.fdt_blocks_misordered_
                0x0000000022038a04       0x64 lib/built-in.o
 .text.fdt_splice_
                0x0000000022038a68       0x98 lib/built-in.o
 .text.fdt_splice_mem_rsv_
                0x0000000022038b00       0x58 lib/built-in.o
 .text.fdt_splice_struct_
                0x0000000022038b58       0x4c lib/built-in.o
 .text.fdt_packblocks_
                0x0000000022038ba4       0x8c lib/built-in.o
 .text.fdt_add_property_
                0x0000000022038c30      0x124 lib/built-in.o
 .text.fdt_rw_check_header_
                0x0000000022038d54       0x60 lib/built-in.o
 .text.fdt_add_mem_rsv
                0x0000000022038db4       0x88 lib/built-in.o
                0x0000000022038db4                fdt_add_mem_rsv
 .text.fdt_del_mem_rsv
                0x0000000022038e3c       0x58 lib/built-in.o
                0x0000000022038e3c                fdt_del_mem_rsv
 .text.fdt_setprop_placeholder
                0x0000000022038e94       0xd0 lib/built-in.o
                0x0000000022038e94                fdt_setprop_placeholder
 .text.fdt_setprop
                0x0000000022038f64       0x48 lib/built-in.o
                0x0000000022038f64                fdt_setprop
 .text.fdt_delprop
                0x0000000022038fac       0x68 lib/built-in.o
                0x0000000022038fac                fdt_delprop
 .text.fdt_add_subnode_namelen
                0x0000000022039014       0xf0 lib/built-in.o
                0x0000000022039014                fdt_add_subnode_namelen
 .text.fdt_add_subnode
                0x0000000022039104       0x30 lib/built-in.o
                0x0000000022039104                fdt_add_subnode
 .text.fdt_del_node
                0x0000000022039134       0x50 lib/built-in.o
                0x0000000022039134                fdt_del_node
 .text.fdt_open_into
                0x0000000022039184      0x190 lib/built-in.o
                0x0000000022039184                fdt_open_into
 .text.fdt_pack
                0x0000000022039314       0x5c lib/built-in.o
                0x0000000022039314                fdt_pack
 .text.fdt_address_cells
                0x0000000022039370       0x4c lib/built-in.o
                0x0000000022039370                fdt_address_cells
 .text.fdt_size_cells
                0x00000000220393bc       0x48 lib/built-in.o
                0x00000000220393bc                fdt_size_cells
 .text.overlay_phandle_add_offset
                0x0000000022039404       0x8c lib/built-in.o
 .text.overlay_adjust_node_phandles
                0x0000000022039490       0x98 lib/built-in.o
 .text.overlay_update_local_node_references
                0x0000000022039528      0x1a8 lib/built-in.o
 .text.overlay_get_target
                0x00000000220396d0       0xcc lib/built-in.o
 .text.overlay_apply_node
                0x000000002203979c      0x128 lib/built-in.o
 .text.fdt_overlay_apply
                0x00000000220398c4      0x6b4 lib/built-in.o
                0x00000000220398c4                fdt_overlay_apply
 .text.fdt_path_next_separator
                0x0000000022039f78       0x50 lib/built-in.o
 .text._nextprop
                0x0000000022039fc8       0x54 lib/built-in.o
 .text.fdt_string
                0x000000002203a01c       0x14 lib/built-in.o
                0x000000002203a01c                fdt_string
 .text.fdt_get_mem_rsv
                0x000000002203a030       0x60 lib/built-in.o
                0x000000002203a030                fdt_get_mem_rsv
 .text.fdt_num_mem_rsv
                0x000000002203a090       0x40 lib/built-in.o
                0x000000002203a090                fdt_num_mem_rsv
 .text.fdt_subnode_offset_namelen
                0x000000002203a0d0       0xd0 lib/built-in.o
                0x000000002203a0d0                fdt_subnode_offset_namelen
 .text.fdt_subnode_offset
                0x000000002203a1a0       0x30 lib/built-in.o
                0x000000002203a1a0                fdt_subnode_offset
 .text.fdt_get_name
                0x000000002203a1d0       0x74 lib/built-in.o
                0x000000002203a1d0                fdt_get_name
 .text.fdt_first_property_offset
                0x000000002203a244       0x20 lib/built-in.o
                0x000000002203a244                fdt_first_property_offset
 .text.fdt_next_property_offset
                0x000000002203a264       0x20 lib/built-in.o
                0x000000002203a264                fdt_next_property_offset
 .text.fdt_get_property_by_offset
                0x000000002203a284       0x50 lib/built-in.o
                0x000000002203a284                fdt_get_property_by_offset
 .text.fdt_get_property_namelen
                0x000000002203a2d4       0xbc lib/built-in.o
                0x000000002203a2d4                fdt_get_property_namelen
 .text.fdt_get_property
                0x000000002203a390       0x3c lib/built-in.o
                0x000000002203a390                fdt_get_property
 .text.fdt_getprop_namelen
                0x000000002203a3cc       0x20 lib/built-in.o
                0x000000002203a3cc                fdt_getprop_namelen
 .text.fdt_getprop_by_offset
                0x000000002203a3ec       0x48 lib/built-in.o
                0x000000002203a3ec                fdt_getprop_by_offset
 .text.fdt_getprop
                0x000000002203a434       0x3c lib/built-in.o
                0x000000002203a434                fdt_getprop
 .text.fdt_get_phandle
                0x000000002203a470       0x70 lib/built-in.o
                0x000000002203a470                fdt_get_phandle
 .text.fdt_get_max_phandle
                0x000000002203a4e0       0x74 lib/built-in.o
                0x000000002203a4e0                fdt_get_max_phandle
 .text.fdt_get_alias_namelen
                0x000000002203a554       0x44 lib/built-in.o
                0x000000002203a554                fdt_get_alias_namelen
 .text.fdt_path_offset_namelen
                0x000000002203a598       0xe4 lib/built-in.o
                0x000000002203a598                fdt_path_offset_namelen
 .text.fdt_path_offset
                0x000000002203a67c       0x28 lib/built-in.o
                0x000000002203a67c                fdt_path_offset
 .text.fdt_get_path
                0x000000002203a6a4      0x138 lib/built-in.o
                0x000000002203a6a4                fdt_get_path
 .text.fdt_supernode_atdepth_offset
                0x000000002203a7dc       0xa4 lib/built-in.o
                0x000000002203a7dc                fdt_supernode_atdepth_offset
 .text.fdt_node_depth
                0x000000002203a880       0x28 lib/built-in.o
                0x000000002203a880                fdt_node_depth
 .text.fdt_parent_offset
                0x000000002203a8a8       0x30 lib/built-in.o
                0x000000002203a8a8                fdt_parent_offset
 .text.fdt_node_offset_by_phandle
                0x000000002203a8d8       0x6c lib/built-in.o
                0x000000002203a8d8                fdt_node_offset_by_phandle
 .text.fdt_stringlist_count
                0x000000002203a944       0x64 lib/built-in.o
                0x000000002203a944                fdt_stringlist_count
 .text.fdt_stringlist_search
                0x000000002203a9a8       0xa4 lib/built-in.o
                0x000000002203a9a8                fdt_stringlist_search
 .text.fdt_stringlist_get
                0x000000002203aa4c       0xac lib/built-in.o
                0x000000002203aa4c                fdt_stringlist_get
 .text.utf16_strlen
                0x000000002203aaf8       0x1c lib/built-in.o
                0x000000002203aaf8                utf16_strlen
 .text.utf16_strnlen
                0x000000002203ab14       0x24 lib/built-in.o
                0x000000002203ab14                utf16_strnlen
 .text.utf16_to_utf8
                0x000000002203ab38      0x118 lib/built-in.o
                0x000000002203ab38                utf16_to_utf8
 .text.utf8_to_utf16
                0x000000002203ac50      0x104 lib/built-in.o
                0x000000002203ac50                utf8_to_utf16
 .text.crc16_ccitt
                0x000000002203ad54       0x38 lib/built-in.o
                0x000000002203ad54                crc16_ccitt
 .text.fdtdec_get_int
                0x000000002203ad8c       0x34 lib/built-in.o
                0x000000002203ad8c                fdtdec_get_int
 .text.fdtdec_get_uint
                0x000000002203adc0       0x34 lib/built-in.o
                0x000000002203adc0                fdtdec_get_uint
 .text.smbios_write_type127
                0x000000002203adf4       0x54 lib/built-in.o
 .text.smbios_write_type32
                0x000000002203ae48       0x54 lib/built-in.o
 .text.smbios_string_table_len
                0x000000002203ae9c       0x38 lib/built-in.o
 .text.smbios_add_string
                0x000000002203aed4       0x68 lib/built-in.o
 .text.smbios_write_type3
                0x000000002203af3c       0x8c lib/built-in.o
 .text.smbios_write_type2
                0x000000002203afc8       0x9c lib/built-in.o
 .text.smbios_write_type0
                0x000000002203b064       0xf4 lib/built-in.o
 .text.smbios_write_type1
                0x000000002203b158       0xc4 lib/built-in.o
 .text.smbios_write_type4
                0x000000002203b21c       0xd8 lib/built-in.o
 .text.write_smbios_table
                0x000000002203b2f4      0x124 lib/built-in.o
                0x000000002203b2f4                write_smbios_table
 .text.initcall_run_list
                0x000000002203b418       0x5c lib/built-in.o
                0x000000002203b418                initcall_run_list
 .text.lmb_add_region
                0x000000002203b474      0x190 lib/built-in.o
 .text.lmb_init
                0x000000002203b604       0x28 lib/built-in.o
                0x000000002203b604                lmb_init
 .text.lmb_add  0x000000002203b62c        0x4 lib/built-in.o
                0x000000002203b62c                lmb_add
 .text.lmb_free
                0x000000002203b630       0xe8 lib/built-in.o
                0x000000002203b630                lmb_free
 .text.lmb_reserve
                0x000000002203b718        0x8 lib/built-in.o
                0x000000002203b718                lmb_reserve
 .text.__lmb_alloc_base
                0x000000002203b720      0x124 lib/built-in.o
                0x000000002203b720                __lmb_alloc_base
 .text.lmb_alloc_base
                0x000000002203b844       0x34 lib/built-in.o
                0x000000002203b844                lmb_alloc_base
 .text.lmb_alloc
                0x000000002203b878        0x8 lib/built-in.o
                0x000000002203b878                lmb_alloc
 .text.board_lmb_reserve
                0x000000002203b880        0x4 lib/built-in.o
                0x000000002203b880                board_lmb_reserve
 .text.MD5Transform
                0x000000002203b884      0xa24 lib/built-in.o
 .text.MD5Update
                0x000000002203c2a8       0xc8 lib/built-in.o
 .text.MD5Final
                0x000000002203c370       0xa0 lib/built-in.o
 .text.md5_wd   0x000000002203c410       0x64 lib/built-in.o
                0x000000002203c410                md5_wd
 .text.string_to_ip
                0x000000002203c474       0x90 lib/built-in.o
                0x000000002203c474                string_to_ip
 .text.qsort    0x000000002203c504       0xec lib/built-in.o
                0x000000002203c504                qsort
 .text.strcmp_compar
                0x000000002203c5f0        0xc lib/built-in.o
                0x000000002203c5f0                strcmp_compar
 .text.merge    0x000000002203c5fc       0x68 lib/built-in.o
 .text.list_sort
                0x000000002203c664      0x194 lib/built-in.o
                0x000000002203c664                list_sort
 .text.sha1_process
                0x000000002203c7f8     0x1538 lib/built-in.o
 .text.sha1_update.part.0
                0x000000002203dd30       0xbc lib/built-in.o
 .text.sha1_starts
                0x000000002203ddec       0x4c lib/built-in.o
                0x000000002203ddec                sha1_starts
 .text.sha1_update
                0x000000002203de38        0xc lib/built-in.o
                0x000000002203de38                sha1_update
 .text.sha1_finish
                0x000000002203de44      0x144 lib/built-in.o
                0x000000002203de44                sha1_finish
 .text.sha1_csum_wd
                0x000000002203df88       0x3c lib/built-in.o
                0x000000002203df88                sha1_csum_wd
 .text.sha256_process
                0x000000002203dfc4     0x24c8 lib/built-in.o
 .text.sha256_update.part.0
                0x000000002204048c       0xbc lib/built-in.o
 .text.sha256_starts
                0x0000000022040548       0x70 lib/built-in.o
                0x0000000022040548                sha256_starts
 .text.sha256_update
                0x00000000220405b8        0xc lib/built-in.o
                0x00000000220405b8                sha256_update
 .text.sha256_finish
                0x00000000220405c4      0x1b0 lib/built-in.o
                0x00000000220405c4                sha256_finish
 .text.sha256_csum_wd
                0x0000000022040774       0x3c lib/built-in.o
                0x0000000022040774                sha256_csum_wd
 .text.zcalloc  0x00000000220407b0        0x8 lib/built-in.o
                0x00000000220407b0                zcalloc
 .text.zcfree   0x00000000220407b8        0x8 lib/built-in.o
                0x00000000220407b8                zcfree
 .text.inflate_fast
                0x00000000220407c0      0x574 lib/built-in.o
                0x00000000220407c0                inflate_fast
 .text.inflate_table
                0x0000000022040d34      0x51c lib/built-in.o
                0x0000000022040d34                inflate_table
 .text.inflateReset
                0x0000000022041250       0x78 lib/built-in.o
                0x0000000022041250                inflateReset
 .text.inflateInit2_
                0x00000000220412c8      0x100 lib/built-in.o
                0x00000000220412c8                inflateInit2_
 .text.inflateEnd
                0x00000000220413c8       0x64 lib/built-in.o
                0x00000000220413c8                inflateEnd
 .text.adler32  0x000000002204142c      0x340 lib/built-in.o
                0x000000002204142c                adler32
 .text.inflate  0x000000002204176c     0x14c4 lib/built-in.o
                0x000000002204176c                inflate
 .text.gzalloc  0x0000000022042c30       0x10 lib/built-in.o
                0x0000000022042c30                gzalloc
 .text.gzfree   0x0000000022042c40        0x8 lib/built-in.o
                0x0000000022042c40                gzfree
 .text.gzip_parse_header
                0x0000000022042c48       0xa0 lib/built-in.o
                0x0000000022042c48                gzip_parse_header
 .text.zunzip   0x0000000022042ce8      0x11c lib/built-in.o
                0x0000000022042ce8                zunzip
 .text.gunzip   0x0000000022042e04       0x50 lib/built-in.o
                0x0000000022042e04                gunzip
 .text.get_prop_check_min_len
                0x0000000022042e54       0x3c lib/built-in.o
 .text.fdtdec_get_is_enabled
                0x0000000022042e90       0x3c lib/built-in.o
                0x0000000022042e90                fdtdec_get_is_enabled
 .text.fdtdec_get_alias_seq
                0x0000000022042ecc      0x118 lib/built-in.o
                0x0000000022042ecc                fdtdec_get_alias_seq
 .text.fdtdec_get_chosen_prop
                0x0000000022042fe4       0x34 lib/built-in.o
                0x0000000022042fe4                fdtdec_get_chosen_prop
 .text.fdtdec_get_chosen_node
                0x0000000022043018       0x28 lib/built-in.o
                0x0000000022043018                fdtdec_get_chosen_node
 .text.fdtdec_prepare_fdt
                0x0000000022043040       0x44 lib/built-in.o
                0x0000000022043040                fdtdec_prepare_fdt
 .text.fdtdec_get_int_array
                0x0000000022043084       0x60 lib/built-in.o
                0x0000000022043084                fdtdec_get_int_array
 .text.fdtdec_get_int_array_count
                0x00000000220430e4       0x58 lib/built-in.o
                0x00000000220430e4                fdtdec_get_int_array_count
 .text.fdtdec_parse_phandle_with_args
                0x000000002204313c      0x160 lib/built-in.o
                0x000000002204313c                fdtdec_parse_phandle_with_args
 .text.fdtdec_get_config_int
                0x000000002204329c       0x40 lib/built-in.o
                0x000000002204329c                fdtdec_get_config_int
 .text.fdtdec_get_config_string
                0x00000000220432dc       0x3c lib/built-in.o
                0x00000000220432dc                fdtdec_get_config_string
 .text.fdtdec_get_number
                0x0000000022043318       0x48 lib/built-in.o
                0x0000000022043318                fdtdec_get_number
 .text.fdtdec_get_addr_size_fixed
                0x0000000022043360       0xbc lib/built-in.o
                0x0000000022043360                fdtdec_get_addr_size_fixed
 .text.fdtdec_get_addr_size
                0x000000002204341c       0x34 lib/built-in.o
                0x000000002204341c                fdtdec_get_addr_size
 .text.board_fdt_blob_setup
                0x0000000022043450        0xc lib/built-in.o
                0x0000000022043450                board_fdt_blob_setup
 .text.fdtdec_setup
                0x000000002204345c       0x30 lib/built-in.o
                0x000000002204345c                fdtdec_setup
 .text.cmpkey   0x000000002204348c       0x14 lib/built-in.o
 .text._hdelete.isra.0
                0x00000000220434a0       0x50 lib/built-in.o
 .text.drop_var_from_set.part.1
                0x00000000220434f0       0x50 lib/built-in.o
 .text.match_string
                0x0000000022043540       0xb8 lib/built-in.o
 .text.match_entry
                0x00000000220435f8       0xb4 lib/built-in.o
 .text.hcreate_r
                0x00000000220436ac       0x98 lib/built-in.o
                0x00000000220436ac                hcreate_r
 .text.hdestroy_r
                0x0000000022043744       0x6c lib/built-in.o
                0x0000000022043744                hdestroy_r
 .text.hmatch_r
                0x00000000220437b0       0x9c lib/built-in.o
                0x00000000220437b0                hmatch_r
 .text.hsearch_r
                0x000000002204384c      0x484 lib/built-in.o
                0x000000002204384c                hsearch_r
 .text.hdelete_r
                0x0000000022043cd0       0xf0 lib/built-in.o
                0x0000000022043cd0                hdelete_r
 .text.hexport_r
                0x0000000022043dc0      0x29c lib/built-in.o
                0x0000000022043dc0                hexport_r
 .text.himport_r
                0x000000002204405c      0x3f4 lib/built-in.o
                0x000000002204405c                himport_r
 .text.hwalk_r  0x0000000022044450       0x5c lib/built-in.o
                0x0000000022044450                hwalk_r
 .text.display_options_get_banner_priv
                0x00000000220444ac       0x98 lib/built-in.o
                0x00000000220444ac                display_options_get_banner_priv
 .text.display_options_get_banner
                0x0000000022044544       0x10 lib/built-in.o
                0x0000000022044544                display_options_get_banner
 .text.display_options
                0x0000000022044554       0x34 lib/built-in.o
                0x0000000022044554                display_options
 .text.print_size
                0x0000000022044588      0x14c lib/built-in.o
                0x0000000022044588                print_size
 .text.print_buffer
                0x00000000220446d4      0x1b4 lib/built-in.o
                0x00000000220446d4                print_buffer
 .text.crc32_no_comp
                0x0000000022044888       0xd4 lib/built-in.o
                0x0000000022044888                crc32_no_comp
 .text.crc32    0x000000002204495c       0x14 lib/built-in.o
                0x000000002204495c                crc32
 .text.crc32_wd
                0x0000000022044970        0x4 lib/built-in.o
                0x0000000022044970                crc32_wd
 .text.crc32_wd_buf
                0x0000000022044974       0x38 lib/built-in.o
                0x0000000022044974                crc32_wd_buf
 .text.__div64_32
                0x00000000220449ac       0xd0 lib/built-in.o
                0x00000000220449ac                __div64_32
 .text.hang     0x0000000022044a7c       0x1c lib/built-in.o
                0x0000000022044a7c                hang
 .text.skip_spaces
                0x0000000022044a98       0x28 lib/built-in.o
                0x0000000022044a98                skip_spaces
 .text.strim    0x0000000022044ac0       0x5c lib/built-in.o
                0x0000000022044ac0                strim
 .text.emit     0x0000000022044b1c       0x24 lib/built-in.o
 .text.store_char_in_data
                0x0000000022044b40       0x28 lib/built-in.o
 .text.get_escape_char
                0x0000000022044b68       0x84 lib/built-in.o
 .text.relocate
                0x0000000022044bec       0x40 lib/built-in.o
 .text.match    0x0000000022044c2c      0x3f4 lib/built-in.o
 .text.loop_greedy
                0x0000000022045020       0x94 lib/built-in.o
 .text.loop_non_greedy
                0x00000000220450b4       0x80 lib/built-in.o
 .text.quantifier
                0x0000000022045134       0x94 lib/built-in.o
 .text.fixup_branch
                0x00000000220451c8       0x3c lib/built-in.o
 .text.compile  0x0000000022045204      0x330 lib/built-in.o
 .text.slre_compile
                0x0000000022045534       0xc8 lib/built-in.o
                0x0000000022045534                slre_compile
 .text.slre_match
                0x00000000220455fc       0xa0 lib/built-in.o
                0x00000000220455fc                slre_match
 .text.strncasecmp
                0x000000002204569c       0x80 lib/built-in.o
                0x000000002204569c                strncasecmp
 .text.strcasecmp
                0x000000002204571c        0x8 lib/built-in.o
                0x000000002204571c                strcasecmp
 .text.strcpy   0x0000000022045724       0x18 lib/built-in.o
                0x0000000022045724                strcpy
 .text.strncpy  0x000000002204573c       0x24 lib/built-in.o
                0x000000002204573c                strncpy
 .text.strcat   0x0000000022045760       0x34 lib/built-in.o
                0x0000000022045760                strcat
 .text.strncat  0x0000000022045794       0x54 lib/built-in.o
                0x0000000022045794                strncat
 .text.strcmp   0x00000000220457e8       0x28 lib/built-in.o
                0x00000000220457e8                strcmp
 .text.strncmp  0x0000000022045810       0x3c lib/built-in.o
                0x0000000022045810                strncmp
 .text.strchr   0x000000002204584c       0x30 lib/built-in.o
                0x000000002204584c                strchr
 .text.strlen   0x000000002204587c       0x24 lib/built-in.o
                0x000000002204587c                strlen
 .text.strrchr  0x00000000220458a0       0x3c lib/built-in.o
                0x00000000220458a0                strrchr
 .text.strnlen  0x00000000220458dc       0x30 lib/built-in.o
                0x00000000220458dc                strnlen
 .text.strdup   0x000000002204590c       0x34 lib/built-in.o
                0x000000002204590c                strdup
 .text.memmove  0x0000000022045940       0x40 lib/built-in.o
                0x0000000022045940                memmove
 .text.memcmp   0x0000000022045980       0x44 lib/built-in.o
                0x0000000022045980                memcmp
 .text.strstr   0x00000000220459c4       0x60 lib/built-in.o
                0x00000000220459c4                strstr
 .text.memchr   0x0000000022045a24       0x30 lib/built-in.o
                0x0000000022045a24                memchr
 .text.get_tbclk
                0x0000000022045a54       0x30 lib/built-in.o
                0x0000000022045a54                get_tbclk
 .text.tick_to_time
                0x0000000022045a84       0x64 lib/built-in.o
 .text.get_ticks
                0x0000000022045ae8       0x44 lib/built-in.o
                0x0000000022045ae8                get_ticks
 .text.timer_init
                0x0000000022045b2c        0x8 lib/built-in.o
                0x0000000022045b2c                timer_init
 .text.get_timer
                0x0000000022045b34       0x18 lib/built-in.o
                0x0000000022045b34                get_timer
 .text.timer_get_us
                0x0000000022045b4c       0x24 lib/built-in.o
                0x0000000022045b4c                timer_get_us
 .text.__udelay
                0x0000000022045b70       0xb8 lib/built-in.o
                0x0000000022045b70                __udelay
 .text.udelay   0x0000000022045c28       0x30 lib/built-in.o
                0x0000000022045c28                udelay
 .text.uuid_str_valid
                0x0000000022045c58       0x8c lib/built-in.o
                0x0000000022045c58                uuid_str_valid
 .text.uuid_str_to_bin
                0x0000000022045ce4      0x194 lib/built-in.o
                0x0000000022045ce4                uuid_str_to_bin
 .text.uuid_bin_to_str
                0x0000000022045e78       0xb0 lib/built-in.o
                0x0000000022045e78                uuid_bin_to_str
 .text.panic_finish
                0x0000000022045f28       0x30 lib/built-in.o
 .text.panic_str
                0x0000000022045f58        0xc lib/built-in.o
                0x0000000022045f58                panic_str
 .text.panic    0x0000000022045f64       0x1c lib/built-in.o
                0x0000000022045f64                panic
 .text.put_dec_trunc
                0x0000000022045f80       0xd4 lib/built-in.o
 *fill*         0x0000000022046054        0x4 
 .text.put_dec  0x0000000022046058      0x18c lib/built-in.o
 .text.number   0x00000000220461e4      0x2c4 lib/built-in.o
 .text.string16
                0x00000000220464a8       0xe4 lib/built-in.o
 .text.string   0x000000002204658c       0xb8 lib/built-in.o
 .text.vsnprintf_internal
                0x0000000022046644      0x770 lib/built-in.o
 .text.vscnprintf
                0x0000000022046db4       0x24 lib/built-in.o
                0x0000000022046db4                vscnprintf
 .text.snprintf
                0x0000000022046dd8       0x28 lib/built-in.o
                0x0000000022046dd8                snprintf
 .text.vsprintf
                0x0000000022046e00       0x10 lib/built-in.o
                0x0000000022046e00                vsprintf
 .text.sprintf  0x0000000022046e10       0x28 lib/built-in.o
                0x0000000022046e10                sprintf
 .text.printf   0x0000000022046e38       0x48 lib/built-in.o
                0x0000000022046e38                printf
 .text.vprintf  0x0000000022046e80       0x38 lib/built-in.o
                0x0000000022046e80                vprintf
 .text.simple_itoa
                0x0000000022046eb8       0x58 lib/built-in.o
                0x0000000022046eb8                simple_itoa
 .text.str2off  0x0000000022046f10       0x3c lib/built-in.o
                0x0000000022046f10                str2off
 .text._parse_integer_fixup_radix
                0x0000000022046f4c       0x98 lib/built-in.o
 .text.simple_strtoul
                0x0000000022046fe4       0x78 lib/built-in.o
                0x0000000022046fe4                simple_strtoul
 .text.strict_strtoul
                0x000000002204705c       0x78 lib/built-in.o
                0x000000002204705c                strict_strtoul
 .text.simple_strtol
                0x00000000220470d4       0x24 lib/built-in.o
                0x00000000220470d4                simple_strtol
 .text.ustrtoul
                0x00000000220470f8       0x6c lib/built-in.o
                0x00000000220470f8                ustrtoul
 .text.simple_strtoull
                0x0000000022047164       0xa4 lib/built-in.o
                0x0000000022047164                simple_strtoull
 .text.ustrtoull
                0x0000000022047208       0x84 lib/built-in.o
                0x0000000022047208                ustrtoull
 .text.trailing_strtoln
                0x000000002204728c       0x70 lib/built-in.o
                0x000000002204728c                trailing_strtoln
 .text.trailing_strtol
                0x00000000220472fc        0x8 lib/built-in.o
                0x00000000220472fc                trailing_strtol
 .text.strmhz   0x0000000022047304       0x64 lib/built-in.o
                0x0000000022047304                strmhz
 .text.compute_ip_checksum
                0x0000000022047368       0x6c net/built-in.o
                0x0000000022047368                compute_ip_checksum
 .text.ip_checksum_ok
                0x00000000220473d4       0x1c net/built-in.o
                0x00000000220473d4                ip_checksum_ok
 .text.arp_init
                0x00000000220473f0       0x50 net/built-in.o
                0x00000000220473f0                arp_init
 .text.arp_raw_request
                0x0000000022047440       0xd0 net/built-in.o
                0x0000000022047440                arp_raw_request
 .text.arp_request
                0x0000000022047510       0x84 net/built-in.o
                0x0000000022047510                arp_request
 .text.arp_timeout_check
                0x0000000022047594       0x90 net/built-in.o
                0x0000000022047594                arp_timeout_check
 .text.arp_receive
                0x0000000022047624      0x250 net/built-in.o
                0x0000000022047624                arp_receive
 .text.dhcp_extended
                0x0000000022047874      0x24c net/built-in.o
 .text.dhcp_process_options
                0x0000000022047ac0      0x208 net/built-in.o
 .text.dhcp_packet_process_options
                0x0000000022047cc8       0x84 net/built-in.o
 .text.dhcp_handler
                0x0000000022047d4c      0x414 net/built-in.o
 .text.bootp_reset
                0x0000000022048160       0x44 net/built-in.o
                0x0000000022048160                bootp_reset
 .text.bootp_request
                0x00000000220481a4      0x2a0 net/built-in.o
                0x00000000220481a4                bootp_request
 .text.bootp_timeout_handler
                0x0000000022048444       0x70 net/built-in.o
 .text.dhcp_request
                0x00000000220484b4        0x4 net/built-in.o
                0x00000000220484b4                dhcp_request
 .text.eth_get_uclass_priv
                0x00000000220484b8       0x20 net/built-in.o
 .text.eth_pre_remove
                0x00000000220484d8       0x30 net/built-in.o
 .text.eth_post_probe
                0x0000000022048508      0x184 net/built-in.o
 .text.eth_write_hwaddr
                0x000000002204868c       0xd8 net/built-in.o
 .text.on_ethaddr
                0x0000000022048764       0x84 net/built-in.o
 .text.eth_post_bind
                0x00000000220487e8       0x34 net/built-in.o
 .text.eth_set_current_to_next
                0x000000002204881c       0x38 net/built-in.o
                0x000000002204881c                eth_set_current_to_next
 .text.eth_get_dev
                0x0000000022048854       0x38 net/built-in.o
                0x0000000022048854                eth_get_dev
 .text.eth_set_dev
                0x000000002204888c       0x40 net/built-in.o
                0x000000002204888c                eth_set_dev
 .text.eth_pre_unbind
                0x00000000220488cc       0x28 net/built-in.o
 .text.eth_get_dev_by_name
                0x00000000220488f4       0xf0 net/built-in.o
                0x00000000220488f4                eth_get_dev_by_name
 .text.eth_get_ethaddr
                0x00000000220489e4       0x20 net/built-in.o
                0x00000000220489e4                eth_get_ethaddr
 .text.eth_halt_state_only
                0x0000000022048a04       0x28 net/built-in.o
                0x0000000022048a04                eth_halt_state_only
 .text.eth_get_dev_index
                0x0000000022048a2c       0x24 net/built-in.o
                0x0000000022048a2c                eth_get_dev_index
 .text.eth_init
                0x0000000022048a50       0xfc net/built-in.o
                0x0000000022048a50                eth_init
 .text.eth_halt
                0x0000000022048b4c       0x3c net/built-in.o
                0x0000000022048b4c                eth_halt
 .text.eth_is_active
                0x0000000022048b88       0x38 net/built-in.o
                0x0000000022048b88                eth_is_active
 .text.eth_send
                0x0000000022048bc0       0x54 net/built-in.o
                0x0000000022048bc0                eth_send
 .text.eth_rx   0x0000000022048c14       0xac net/built-in.o
                0x0000000022048c14                eth_rx
 .text.eth_initialize
                0x0000000022048cc0      0x100 net/built-in.o
                0x0000000022048cc0                eth_initialize
 .text.eth_env_get_enetaddr_by_index
                0x0000000022048dc0       0x4c net/built-in.o
                0x0000000022048dc0                eth_env_get_enetaddr_by_index
 .text.eth_env_set_enetaddr_by_index
                0x0000000022048e0c       0x4c net/built-in.o
                0x0000000022048e0c                eth_env_set_enetaddr_by_index
 .text.eth_common_init
                0x0000000022048e58       0x18 net/built-in.o
                0x0000000022048e58                eth_common_init
 .text.eth_mac_skip
                0x0000000022048e70       0x40 net/built-in.o
                0x0000000022048e70                eth_mac_skip
 .text.eth_get_name
                0x0000000022048eb0       0x28 net/built-in.o
                0x0000000022048eb0                eth_get_name
 .text.eth_current_changed
                0x0000000022048ed8       0x90 net/built-in.o
                0x0000000022048ed8                eth_current_changed
 .text.eth_try_another
                0x0000000022048f68       0x80 net/built-in.o
                0x0000000022048f68                eth_try_another
 .text.eth_set_current
                0x0000000022048fe8       0x90 net/built-in.o
                0x0000000022048fe8                eth_set_current
 .text.net_clear_handlers
                0x0000000022049078       0x34 net/built-in.o
 .text.start_again_timeout_handler
                0x00000000220490ac       0x14 net/built-in.o
 .text.dummy_handler
                0x00000000220490c0        0x4 net/built-in.o
 .text.on_ipaddr
                0x00000000220490c4       0x30 net/built-in.o
 .text.on_gatewayip
                0x00000000220490f4       0x30 net/built-in.o
 .text.on_netmask
                0x0000000022049124       0x30 net/built-in.o
 .text.on_serverip
                0x0000000022049154       0x30 net/built-in.o
 .text.net_init_loop.part.0
                0x0000000022049184       0x20 net/built-in.o
 .text.net_auto_load
                0x00000000220491a4       0x64 net/built-in.o
                0x00000000220491a4                net_auto_load
 .text.net_init
                0x0000000022049208       0x7c net/built-in.o
                0x0000000022049208                net_init
 .text.net_start_again
                0x0000000022049284      0x168 net/built-in.o
                0x0000000022049284                net_start_again
 .text.net_loop
                0x00000000220493ec      0x378 net/built-in.o
                0x00000000220493ec                net_loop
 .text.net_set_udp_handler
                0x0000000022049764       0x20 net/built-in.o
                0x0000000022049764                net_set_udp_handler
 .text.net_get_arp_handler
                0x0000000022049784       0x10 net/built-in.o
                0x0000000022049784                net_get_arp_handler
 .text.net_set_timeout_handler
                0x0000000022049794       0x5c net/built-in.o
                0x0000000022049794                net_set_timeout_handler
 .text.net_process_received_packet
                0x00000000220497f0      0x314 net/built-in.o
                0x00000000220497f0                net_process_received_packet
 .text.net_eth_hdr_size
                0x0000000022049b04       0x3c net/built-in.o
                0x0000000022049b04                net_eth_hdr_size
 .text.net_set_ether
                0x0000000022049b40       0xc0 net/built-in.o
                0x0000000022049b40                net_set_ether
 .text.net_update_ether
                0x0000000022049c00       0x9c net/built-in.o
                0x0000000022049c00                net_update_ether
 .text.net_set_ip_header
                0x0000000022049c9c       0xa8 net/built-in.o
                0x0000000022049c9c                net_set_ip_header
 .text.net_set_udp_header
                0x0000000022049d44       0xc4 net/built-in.o
                0x0000000022049d44                net_set_udp_header
 .text.net_send_udp_packet
                0x0000000022049e08      0x104 net/built-in.o
                0x0000000022049e08                net_send_udp_packet
 .text.copy_filename
                0x0000000022049f0c       0x44 net/built-in.o
                0x0000000022049f0c                copy_filename
 .text.on_bootfile
                0x0000000022049f50       0x3c net/built-in.o
 .text.ip_to_string
                0x0000000022049f8c       0x3c net/built-in.o
                0x0000000022049f8c                ip_to_string
 .text.string_to_vlan
                0x0000000022049fc8       0x50 net/built-in.o
                0x0000000022049fc8                string_to_vlan
 .text.on_nvlan
                0x000000002204a018       0x30 net/built-in.o
 .text.on_vlan  0x000000002204a048       0x30 net/built-in.o
 .text.rpc_lookup_reply
                0x000000002204a078       0xb8 net/built-in.o
 .text.nfs_mount_reply
                0x000000002204a130       0xac net/built-in.o
 .text.nfs_umountall_reply
                0x000000002204a1dc       0x9c net/built-in.o
 .text.nfs_lookup_reply
                0x000000002204a278      0x118 net/built-in.o
 .text.nfs3_get_attributes_offset
                0x000000002204a390       0x14 net/built-in.o
 .text.nfs_readlink_reply
                0x000000002204a3a4      0x120 net/built-in.o
 .text.basename
                0x000000002204a4c4       0x38 net/built-in.o
 .text.rpc_req  0x000000002204a4fc      0x12c net/built-in.o
 .text.nfs_read_req
                0x000000002204a628       0xf8 net/built-in.o
 .text.nfs_read_reply.isra.0
                0x000000002204a720      0x168 net/built-in.o
 .text.nfs_mount_req
                0x000000002204a888       0xc0 net/built-in.o
 .text.nfs_readlink_req
                0x000000002204a948       0xcc net/built-in.o
 .text.nfs_lookup_req
                0x000000002204aa14      0x18c net/built-in.o
 .text.nfs_umountall_req
                0x000000002204aba0       0x84 net/built-in.o
 .text.nfs_send
                0x000000002204ac24      0x150 net/built-in.o
 .text.nfs_handler
                0x000000002204ad74      0x244 net/built-in.o
 .text.nfs_timeout_handler
                0x000000002204afb8       0x64 net/built-in.o
 .text.nfs_start
                0x000000002204b01c      0x170 net/built-in.o
                0x000000002204b01c                nfs_start
 .text.ping_timeout_handler
                0x000000002204b18c       0x1c net/built-in.o
 .text.ping_start
                0x000000002204b1a8      0x14c net/built-in.o
                0x000000002204b1a8                ping_start
 .text.ping_receive
                0x000000002204b2f4      0x120 net/built-in.o
                0x000000002204b2f4                ping_receive
 .text.tftp_send
                0x000000002204b414      0x1d4 net/built-in.o
 .text.tftp_handler
                0x000000002204b5e8      0x38c net/built-in.o
 .text.tftp_timeout_handler
                0x000000002204b974       0x88 net/built-in.o
 .text.tftp_start
                0x000000002204b9fc      0x388 net/built-in.o
                0x000000002204b9fc                tftp_start
 .text.do_dm_dump_devres
                0x000000002204bd84        0x8 test/dm/built-in.o
 .text.do_dm    0x000000002204bd8c       0x74 test/dm/built-in.o
 .text.do_dm_dump_uclass
                0x000000002204be00       0x10 test/dm/built-in.o
 .text.do_dm_dump_all
                0x000000002204be10       0x10 test/dm/built-in.o
 .text.__udivsi3
                0x000000002204be20       0x9c arch/arm/lib/lib.a(lib1funcs.o)
                0x000000002204be20                __udivsi3
                0x000000002204be20                __aeabi_uidiv
 .text.__divsi3
                0x000000002204bebc       0xcc arch/arm/lib/lib.a(lib1funcs.o)
                0x000000002204bebc                __aeabi_idiv
                0x000000002204bebc                __divsi3
 .text.__aeabi_uidivmod
                0x000000002204bf88       0x30 arch/arm/lib/lib.a(lib1funcs.o)
                0x000000002204bf88                __aeabi_uidivmod
                0x000000002204bfa0                __aeabi_idivmod
 .text.Ldiv0    0x000000002204bfb8       0x10 arch/arm/lib/lib.a(lib1funcs.o)
 .text.__div0   0x000000002204bfc8        0x4 arch/arm/lib/lib.a(div0.o)
                0x000000002204bfc8                __div0

.glue_7         0x000000002204bfcc        0x0
 .glue_7        0x000000002204bfcc        0x0 linker stubs

.glue_7t        0x000000002204bfcc        0x0
 .glue_7t       0x000000002204bfcc        0x0 linker stubs

.vfp11_veneer   0x000000002204bfcc        0x0
 .vfp11_veneer  0x000000002204bfcc        0x0 linker stubs

.v4_bx          0x000000002204bfcc        0x0
 .v4_bx         0x000000002204bfcc        0x0 linker stubs

.iplt           0x000000002204bfcc        0x0
 .iplt          0x000000002204bfcc        0x0 arch/arm/cpu/armv7/start.o
                0x000000002204bfcc                . = ALIGN (0x4)

.rodata         0x000000002204bfd0     0xee2a
 *(SORT_BY_ALIGNMENT(SORT_BY_NAME(.rodata*)))
 .rodata.efi_boot_services
                0x000000002204bfd0       0xc8 lib/built-in.o
 .rodata.efi_file_handle_protocol
                0x000000002204c098       0x30 lib/built-in.o
 .rodata        0x000000002204c0c8       0x80 arch/arm/lib/built-in.o
 .rodata        0x000000002204c148        0x8 drivers/built-in.o
 .rodata.CSWTCH.184
                0x000000002204c150       0x74 common/built-in.o
 .rodata.CSWTCH.32
                0x000000002204c1c4       0x20 common/built-in.o
 .rodata.CSWTCH.37
                0x000000002204c1e4       0x20 disk/built-in.o
 .rodata.CSWTCH.45
                0x000000002204c204       0x14 cmd/built-in.o
 .rodata.at91_i2c_ids
                0x000000002204c218       0x48 drivers/i2c/built-in.o
 .rodata.at91_i2c_ops
                0x000000002204c260       0x18 drivers/i2c/built-in.o
 .rodata.at91_master_clk_match
                0x000000002204c278       0x18 drivers/built-in.o
 .rodata.at91_plladiv_clk_match
                0x000000002204c290       0x10 drivers/built-in.o
 .rodata.at91_pmc_match
                0x000000002204c2a0       0x40 drivers/built-in.o
 .rodata.at91_sckc_match
                0x000000002204c2e0       0x10 drivers/built-in.o
 .rodata.at91_slow_clk_match
                0x000000002204c2f0       0x10 drivers/built-in.o
 .rodata.at91_system_clk_match
                0x000000002204c300       0x10 drivers/built-in.o
 .rodata.at91rm9200_config
                0x000000002204c310        0x8 drivers/i2c/built-in.o
 .rodata.at91sam9260_config
                0x000000002204c318        0x8 drivers/i2c/built-in.o
 .rodata.at91sam9261_config
                0x000000002204c320        0x8 drivers/i2c/built-in.o
 .rodata.at91sam9g10_config
                0x000000002204c328        0x8 drivers/i2c/built-in.o
 .rodata.at91sam9g20_config
                0x000000002204c330        0x8 drivers/i2c/built-in.o
 .rodata.at91sam9x5_config
                0x000000002204c338        0x8 drivers/i2c/built-in.o
 .rodata.atmel_pinctrl_match
                0x000000002204c340       0x10 drivers/built-in.o
 .rodata.atmel_pinctrl_ops
                0x000000002204c350       0x44 drivers/built-in.o
                0x000000002204c350                atmel_pinctrl_ops
 .rodata.atmel_pio4_ids
                0x000000002204c394       0x10 drivers/gpio/built-in.o
 .rodata.atmel_pio4_ops
                0x000000002204c3a4       0x28 drivers/gpio/built-in.o
 .rodata.atmel_pit_ids
                0x000000002204c3cc       0x10 drivers/built-in.o
 .rodata.atmel_pit_ops
                0x000000002204c3dc        0x4 drivers/built-in.o
 .rodata.atmel_qspi_ids
                0x000000002204c3e0       0x10 drivers/spi/built-in.o
 .rodata.atmel_qspi_ops
                0x000000002204c3f0       0x24 drivers/spi/built-in.o
 .rodata.atmel_sama5d2_pioctrl_data
                0x000000002204c414        0x4 drivers/gpio/built-in.o
 .rodata.atmel_sdhci_ids
                0x000000002204c418       0x10 drivers/built-in.o
 .rodata.atmel_serial_ids
                0x000000002204c428       0x18 drivers/serial/built-in.o
 .rodata.atmel_serial_ops
                0x000000002204c440       0x18 drivers/serial/built-in.o
 .rodata.atmel_spi_ids
                0x000000002204c458       0x10 drivers/spi/built-in.o
 .rodata.atmel_spi_ops
                0x000000002204c468       0x24 drivers/spi/built-in.o
 .rodata.boot_os
                0x000000002204c48c       0x60 common/built-in.o
 .rodata.clk_fixed_rate_match
                0x000000002204c4ec       0x10 drivers/built-in.o
 .rodata.clk_fixed_rate_ops
                0x000000002204c4fc       0x20 drivers/built-in.o
                0x000000002204c4fc                clk_fixed_rate_ops
 .rodata.color  0x000000002204c51c       0x40 lib/built-in.o
 .rodata.conf_params
                0x000000002204c55c       0x54 drivers/built-in.o
 .rodata.crc_table
                0x000000002204c5b0      0x400 lib/built-in.o
 .rodata.driver_ops
                0x000000002204c9b0        0xc lib/built-in.o
 .rodata.ds24xxx_id
                0x000000002204c9bc       0x18 drivers/built-in.o
 .rodata.ds24xxx_ops
                0x000000002204c9d4        0x4 drivers/built-in.o
 .rodata.efi_blk_ops
                0x000000002204c9d8       0x10 lib/built-in.o
 .rodata.efi_device_path_to_text
                0x000000002204c9e8        0x8 lib/built-in.o
                0x000000002204c9e8                efi_device_path_to_text
 .rodata.efi_device_path_utilities
                0x000000002204c9f0       0x20 lib/built-in.o
                0x000000002204c9f0                efi_device_path_utilities
 .rodata.efi_runtime_detach_list
                0x000000002204ca10       0x50 lib/built-in.o
 .rodata.ehci_usb_ids
                0x000000002204ca60       0x10 drivers/usb/host/built-in.o
 .rodata.env_flags_varaccess_mask
                0x000000002204ca70       0x10 env/built-in.o
 .rodata.ext_csd_bus_width
                0x000000002204ca80       0x3c drivers/built-in.o
 .rodata.fbase  0x000000002204cabc       0x10 drivers/built-in.o
 .rodata.fdt_errtable
                0x000000002204cacc       0x48 lib/built-in.o
 .rodata.freqs.10248
                0x000000002204cb14       0x30 drivers/built-in.o
 .rodata.generated_clk_match
                0x000000002204cb44       0x10 drivers/built-in.o
 .rodata.generic_simple_bus_ids
                0x000000002204cb54       0x18 drivers/built-in.o
 .rodata.generic_syscon_ids
                0x000000002204cb6c       0x10 drivers/built-in.o
 .rodata.hub_id_table
                0x000000002204cb7c       0x30 common/built-in.o
 .rodata.i2c_eeprom_std_ids
                0x000000002204cbac       0x70 drivers/built-in.o
 .rodata.i2c_eeprom_std_ops
                0x000000002204cc1c        0x8 drivers/built-in.o
 .rodata.if_type_uclass_id
                0x000000002204cc24       0x30 drivers/built-in.o
 .rodata.if_typename_str
                0x000000002204cc54       0x30 drivers/built-in.o
 .rodata.init_sequence_f
                0x000000002204cc84       0xa8 common/built-in.o
 .rodata.macb_eth_ids
                0x000000002204cd2c       0x38 drivers/net/built-in.o
 .rodata.macb_eth_ops
                0x000000002204cd64       0x1c drivers/net/built-in.o
 .rodata.machines
                0x000000002204cd80       0x10 lib/built-in.o
 .rodata.main_osc_clk_match
                0x000000002204cd90       0x10 drivers/built-in.o
 .rodata.mass_storage_id_table
                0x000000002204cda0       0x30 common/built-in.o
 .rodata.mmc_blk_ops
                0x000000002204cdd0       0x10 drivers/built-in.o
 .rodata.mmc_modes_by_pref
                0x000000002204cde0       0x20 drivers/built-in.o
 .rodata.mmc_versions.10597
                0x000000002204ce00       0x24 drivers/built-in.o
 .rodata.names.10243
                0x000000002204ce24       0x30 drivers/built-in.o
 .rodata.op_adv
                0x000000002204ce54      0x100 cmd/built-in.o
                0x000000002204ce54                op_adv
 .rodata.op_table
                0x000000002204cf54       0x68 cmd/built-in.o
 .rodata.phy_interface_strings
                0x000000002204cfbc       0x48 drivers/net/phy/built-in.o
 .rodata.plla_clk_match
                0x000000002204d004       0x10 drivers/built-in.o
 .rodata.root_info
                0x000000002204d014        0x8 drivers/built-in.o
 .rodata.sam9x5_periph_clk_match
                0x000000002204d01c       0x18 drivers/built-in.o
 .rodata.sama5d2_config
                0x000000002204d034        0x8 drivers/i2c/built-in.o
 .rodata.sama5d4_config
                0x000000002204d03c        0x8 drivers/i2c/built-in.o
 .rodata.sama5d4_h32mx_clk_match
                0x000000002204d044       0x10 drivers/built-in.o
 .rodata.sd_au_size.10481
                0x000000002204d054       0x40 drivers/built-in.o
 .rodata.sd_modes_by_pref
                0x000000002204d094       0x10 drivers/built-in.o
 .rodata.sdhci_ops
                0x000000002204d0a4       0x14 drivers/built-in.o
                0x000000002204d0a4                sdhci_ops
 .rodata.smbios_write_funcs
                0x000000002204d0b8       0x1c lib/built-in.o
 .rodata.spi_flash_ids
                0x000000002204d0d4      0x6c0 drivers/mtd/spi/built-in.o
                0x000000002204d0d4                spi_flash_ids
 .rodata.spi_flash_std_ids
                0x000000002204d794       0x10 drivers/mtd/spi/built-in.o
 .rodata.spi_flash_std_ops
                0x000000002204d7a4        0xc drivers/mtd/spi/built-in.o
 .rodata.uimage_arch
                0x000000002204d7b0      0x144 common/built-in.o
 .rodata.uimage_comp
                0x000000002204d8f4       0x54 common/built-in.o
 .rodata.uimage_os
                0x000000002204d948       0x90 common/built-in.o
 .rodata.uimage_type
                0x000000002204d9d8      0x1b0 common/built-in.o
 .rodata.usb_hub_ids
                0x000000002204db88       0x10 common/built-in.o
 .rodata.usb_mass_storage_ids
                0x000000002204db98       0x10 common/built-in.o
 .rodata.usb_storage_ops
                0x000000002204dba8       0x10 common/built-in.o
 .rodata.utmi_clk_match
                0x000000002204dbb8       0x10 drivers/built-in.o
 .rodata.w1_gpio_id
                0x000000002204dbc8       0x10 drivers/built-in.o
 .rodata.w1_gpio_ops
                0x000000002204dbd8       0x10 drivers/built-in.o
 .rodata.crc16_tab
                0x000000002204dbe8      0x200 lib/built-in.o
 .rodata.dbase.8603
                0x000000002204dde8       0x40 lib/built-in.o
 .rodata.dext.8604
                0x000000002204de28       0x40 lib/built-in.o
 .rodata.distfix
                0x000000002204de68       0x80 lib/built-in.o
 .rodata.efi_bootmgr_load.str2.2
                0x000000002204dee8       0x48 lib/built-in.o
 .rodata.lbase.8601
                0x000000002204df30       0x3e lib/built-in.o
 .rodata.lenfix
                0x000000002204df6e      0x800 lib/built-in.o
 .rodata.lext.8602
                0x000000002204e76e       0x3e lib/built-in.o
 .rodata.order.8697
                0x000000002204e7ac       0x26 lib/built-in.o
 .rodata.string16.str2.2
                0x000000002204e7d2        0xe lib/built-in.o
 .rodata        0x000000002204e7e0        0x2 cmd/built-in.o
 .rodata        0x000000002204e7e2       0x3f drivers/usb/host/built-in.o
 .rodata        0x000000002204e821        0x3 env/built-in.o
 .rodata        0x000000002204e824       0x20 lib/built-in.o
 .rodata        0x000000002204e844        0x7 net/built-in.o
 .rodata.CSWTCH.70
                0x000000002204e84b       0x16 common/built-in.o
 .rodata.END    0x000000002204e861        0x4 lib/built-in.o
 .rodata.ROOT   0x000000002204e865       0x14 lib/built-in.o
 .rodata.__FUNCTION__.9183
                0x000000002204e879       0x17 common/built-in.o
 .rodata.__FUNCTION__.9347
                0x000000002204e890       0x17 common/built-in.o
 .rodata.__func__.10002
                0x000000002204e8a7        0xb drivers/built-in.o
 .rodata.__func__.10016
                0x000000002204e8b2       0x10 drivers/built-in.o
 .rodata.__func__.10069
                0x000000002204e8c2       0x1a drivers/built-in.o
 .rodata.__func__.10094
                0x000000002204e8dc       0x18 drivers/built-in.o
 .rodata.__func__.10277
                0x000000002204e8f4        0xd drivers/built-in.o
 .rodata.__func__.10283
                0x000000002204e901       0x11 drivers/built-in.o
 .rodata.__func__.10287
                0x000000002204e912       0x18 drivers/built-in.o
 .rodata.__func__.10291
                0x000000002204e92a       0x18 drivers/built-in.o
 .rodata.__func__.10295
                0x000000002204e942        0xd drivers/built-in.o
 .rodata.__func__.10299
                0x000000002204e94f       0x14 drivers/built-in.o
 .rodata.__func__.10303
                0x000000002204e963       0x14 drivers/built-in.o
 .rodata.__func__.10822
                0x000000002204e977        0xc lib/built-in.o
 .rodata.__func__.10825
                0x000000002204e983       0x15 common/built-in.o
 .rodata.__func__.11117
                0x000000002204e998       0x17 drivers/usb/host/built-in.o
 .rodata.__func__.8275
                0x000000002204e9af        0xb fs/built-in.o
 .rodata.__func__.9059
                0x000000002204e9ba       0x18 common/built-in.o
 .rodata.__func__.9175
                0x000000002204e9d2        0xe common/built-in.o
 .rodata.__func__.9453
                0x000000002204e9e0       0x1b lib/built-in.o
 .rodata.__func__.9472
                0x000000002204e9fb        0xc lib/built-in.o
 .rodata.__func__.9674
                0x000000002204ea07        0xe drivers/built-in.o
 .rodata.__func__.9895
                0x000000002204ea15        0xc drivers/built-in.o
 .rodata.__func__.9927
                0x000000002204ea21       0x14 drivers/built-in.o
 .rodata.__func__.9951
                0x000000002204ea35       0x13 drivers/built-in.o
 .rodata.__func__.9965
                0x000000002204ea48       0x10 drivers/built-in.o
 .rodata._ctype
                0x000000002204ea58      0x100 lib/built-in.o
                0x000000002204ea58                _ctype
 .rodata._do_env_set.isra.0.str1.1
                0x000000002204eb58       0x7c cmd/built-in.o
 .rodata._do_help.str1.1
                0x000000002204ebd4       0x5f common/built-in.o
 .rodata._ehci_create_int_queue.isra.5.str1.1
                0x000000002204ec33       0x3d drivers/usb/host/built-in.o
 .rodata._ehci_destroy_int_queue.str1.1
                0x000000002204ec70       0x2d drivers/usb/host/built-in.o
 .rodata.announce_dram_init.str1.1
                0x000000002204ec9d        0x8 common/built-in.o
 .rodata.arp_receive.str1.1
                0x000000002204eca5       0x14 net/built-in.o
 .rodata.arp_request.str1.1
                0x000000002204ecb9       0x2a net/built-in.o
 .rodata.arp_timeout_check.str1.1
                0x000000002204ece3       0x2b net/built-in.o
 .rodata.at91_clk_of_xlate.str1.1
                0x000000002204ed0e        0x4 drivers/built-in.o
 .rodata.at91_clk_sub_device_bind.str1.1
                0x000000002204ed0e        0xb drivers/built-in.o
 .rodata.at91_i2c_ofdata_to_platdata.str1.1
                0x000000002204ed19       0x10 drivers/i2c/built-in.o
 .rodata.at91_pda_detect.str1.1
                0x000000002204ed19       0x59 board/atmel/common/built-in.o
 .rodata.at91_set_ethaddr.str1.1
                0x000000002204ed72        0x8 board/atmel/common/built-in.o
 .rodata.at91_system_clk_bind.str1.1
                0x000000002204ed7a        0xb drivers/built-in.o
 .rodata.atmel_pinctrl_set_state.str1.1
                0x000000002204ed7a       0x74 drivers/built-in.o
 .rodata.atmel_pio4_port_base.str1.1
                0x000000002204edee       0x37 drivers/gpio/built-in.o
 .rodata.atmel_qspi_ofdata_to_platdata.str1.1
                0x000000002204ee25       0x2b drivers/spi/built-in.o
                                         0x2f (size before relaxing)
 .rodata.atmel_sdhci_probe.str1.1
                0x000000002204ee50       0x33 drivers/built-in.o
                                          0xa (size before relaxing)
 .rodata.atmel_spi_probe.str1.1
                0x000000002204ee50       0x27 drivers/spi/built-in.o
 .rodata.autoboot_command.str1.1
                0x000000002204ee77       0x31 common/built-in.o
 .rodata.b_addqchr.str1.1
                0x000000002204eea8        0x5 common/built-in.o
 .rodata.bad_mode.str1.1
                0x000000002204eead       0x13 arch/arm/lib/built-in.o
 .rodata.binary_test.str1.1
                0x000000002204eec0       0x17 cmd/built-in.o
 .rodata.blk_common_cmd.str1.1
                0x000000002204eed7       0xed cmd/built-in.o
                                        0x101 (size before relaxing)
 .rodata.blk_create_devicef.str1.1
                0x000000002204efc4        0x6 drivers/built-in.o
 .rodata.blk_get_device_by_str.str1.1
                0x000000002204efca       0x6a disk/built-in.o
 .rodata.blk_get_device_part_str.str1.1
                0x000000002204f034      0x107 disk/built-in.o
                                        0x109 (size before relaxing)
 .rodata.blk_list_devices.str1.1
                0x000000002204f13b        0x6 drivers/built-in.o
                                          0xc (size before relaxing)
 .rodata.blk_print_device_num.str1.1
                0x000000002204f13b       0x11 drivers/built-in.o
 .rodata.blk_show_device.str1.1
                0x000000002204f14c       0x1d drivers/built-in.o
 .rodata.blkc_configure.str1.1
                0x000000002204f169       0x30 cmd/built-in.o
 .rodata.blkc_show.str1.1
                0x000000002204f199       0x4c cmd/built-in.o
 .rodata.boot_fdt_add_mem_rsv_regions.str1.1
                0x000000002204f1e5       0x35 common/built-in.o
 .rodata.boot_get_fdt.str1.1
                0x000000002204f21a      0x1b5 common/built-in.o
                                        0x1d4 (size before relaxing)
 .rodata.boot_get_fdt_fit.str1.1
                0x000000002204f3cf       0x4f common/built-in.o
 .rodata.boot_get_loadable.str1.1
                0x000000002204f41e       0x3e common/built-in.o
 .rodata.boot_get_ramdisk.str1.1
                0x000000002204f45c       0xb7 common/built-in.o
                                        0x115 (size before relaxing)
 .rodata.boot_get_setup_fit.str1.1
                0x000000002204f513       0x4f common/built-in.o
                                          0x6 (size before relaxing)
 .rodata.boot_jump_linux.str1.1
                0x000000002204f513       0x5c arch/arm/lib/built-in.o
                                         0x5d (size before relaxing)
 .rodata.boot_prep_linux.str1.1
                0x000000002204f56f       0x51 arch/arm/lib/built-in.o
                                         0x5a (size before relaxing)
 .rodata.boot_prep_vxworks.str1.1
                0x000000002204f5c0       0x2a arch/arm/lib/built-in.o
 .rodata.boot_ramdisk_high.str1.1
                0x000000002204f5ea       0x54 common/built-in.o
 .rodata.boot_relocate_fdt.str1.1
                0x000000002204f63e       0xcf common/built-in.o
                                         0xd3 (size before relaxing)
 .rodata.bootdelay_process.str1.1
                0x000000002204f70d       0x3a common/built-in.o
                                         0x42 (size before relaxing)
 .rodata.bootm_decomp_image.str1.1
                0x000000002204f747       0x99 common/built-in.o
                                         0xc0 (size before relaxing)
 .rodata.bootm_find_images.str1.1
                0x000000002204f7e0       0x6c common/built-in.o
 .rodata.bootm_maybe_autostart.str1.1
                0x000000002204f84c       0x3b cmd/built-in.o
 .rodata.bootp_request.str1.1
                0x000000002204f887       0x25 net/built-in.o
 .rodata.bootp_timeout_handler.str1.1
                0x000000002204f8ac       0x26 net/built-in.o
 .rodata.calculate_hash.str1.1
                0x000000002204f8d2        0x4 common/built-in.o
                                         0x16 (size before relaxing)
 .rodata.check_cache_range.str1.1
                0x000000002204f8d6       0x35 arch/arm/lib/built-in.o
 .rodata.check_reserved.str1.1
                0x000000002204f90b       0x27 drivers/gpio/built-in.o
                                         0x28 (size before relaxing)
 .rodata.cli_process_fdt.str1.1
                0x000000002204f932        0xb common/built-in.o
                                         0x13 (size before relaxing)
 .rodata.cli_readline_into_buffer.str1.1
                0x000000002204f93d        0x7 common/built-in.o
                                          0x8 (size before relaxing)
 .rodata.cli_secure_boot_cmd.str1.1
                0x000000002204f944       0x50 common/built-in.o
 .rodata.clk_fixed_rate_ofdata_to_platdata.str1.1
                0x000000002204f994       0x10 drivers/built-in.o
 .rodata.clk_get_by_index.str1.1
                0x000000002204f9a4        0xa drivers/built-in.o
                                          0x7 (size before relaxing)
 .rodata.clk_get_by_indexed_prop.isra.1.str1.1
                0x000000002204f9a4        0xd drivers/built-in.o
 .rodata.clk_set_defaults.str1.1
                0x000000002204f9b1       0x3c drivers/built-in.o
 .rodata.cmd_auto_complete.str1.1
                0x000000002204f9ed       0x5f common/built-in.o
                                          0xf (size before relaxing)
 .rodata.cmd_process.str1.1
                0x000000002204f9ed       0x3f common/built-in.o
 .rodata.cmd_process_error.str1.1
                0x000000002204fa2c       0x1f common/built-in.o
 .rodata.cmd_usage.str1.1
                0x000000002204fa4b       0x36 common/built-in.o
 .rodata.common_diskboot.str1.1
                0x000000002204fa81       0xbf cmd/built-in.o
 .rodata.compile.str1.1
                0x000000002204fb40       0x4a lib/built-in.o
 .rodata.cread_add_char.str1.1
                0x000000002204fb8a        0x5 common/built-in.o
 .rodata.debug_uart_init.str1.1
                0x000000002204fb8f        0xe drivers/serial/built-in.o
 .rodata.default_environment
                0x000000002204fb9d      0x161 env/built-in.o
                0x000000002204fb9d                default_environment
 .rodata.dev_get_platdata.str1.1
                0x000000002204fcfe       0x11 drivers/built-in.o
 .rodata.dev_print.str1.1
                0x000000002204fd0f      0x14d disk/built-in.o
                                        0x15e (size before relaxing)
 .rodata.devfdt_get_addr_index.str1.1
                0x000000002204fe5c        0x4 drivers/built-in.o
 .rodata.device_bind_common.isra.0.str1.1
                0x000000002204fe5c       0x5b drivers/built-in.o
 .rodata.device_probe.str1.1
                0x000000002204feb7       0x30 drivers/built-in.o
                                         0x38 (size before relaxing)
 .rodata.device_remove.str1.1
                0x000000002204fee7       0x98 drivers/built-in.o
 .rodata.dhcp_extended.str1.1
                0x000000002204ff7f       0x3f net/built-in.o
 .rodata.dhcp_handler.str1.1
                0x000000002204ffbe       0x41 net/built-in.o
                                         0x4a (size before relaxing)
 .rodata.dhcp_process_options.str1.1
                0x000000002204ffff       0x78 net/built-in.o
 .rodata.digits.9615
                0x0000000022050077       0x10 lib/built-in.o
 .rodata.disable_periodic.isra.1.str1.1
                0x0000000022050087       0x33 drivers/usb/host/built-in.o
 .rodata.disk_write.str1.1
                0x00000000220500ba       0x18 fs/built-in.o
 .rodata.display_options.str1.1
                0x00000000220500d2        0x3 lib/built-in.o
 .rodata.display_options_get_banner_priv.str1.1
                0x00000000220500d2       0x11 lib/built-in.o
                                         0x15 (size before relaxing)
 .rodata.dm_dump_all.str1.1
                0x00000000220500e3       0x26 drivers/built-in.o
                                         0x50 (size before relaxing)
 .rodata.dm_dump_uclass.str1.1
                0x0000000022050109       0x32 drivers/built-in.o
                                         0x34 (size before relaxing)
 .rodata.dm_extended_scan_fdt.str1.1
                0x000000002205013b        0x8 drivers/built-in.o
 .rodata.dm_fdt_pre_reloc.str1.1
                0x0000000022050143       0x30 drivers/built-in.o
 .rodata.dm_gpio_get_value.str1.1
                0x0000000022050173        0xa drivers/gpio/built-in.o
 .rodata.dm_gpio_set_dir_flags.str1.1
                0x000000002205017d        0x8 drivers/gpio/built-in.o
 .rodata.dm_gpio_set_value.str1.1
                0x0000000022050185        0xa drivers/gpio/built-in.o
 .rodata.dm_init.str1.1
                0x000000002205018f       0x25 drivers/built-in.o
 .rodata.dm_root.str1.1
                0x00000000220501b4       0x25 drivers/built-in.o
 .rodata.dm_scan_fdt_node.str1.1
                0x00000000220501d9       0x1d drivers/built-in.o
                                         0x24 (size before relaxing)
 .rodata.dm_scan_platdata.str1.1
                0x00000000220501f6       0x1d drivers/built-in.o
 .rodata.dm_timer_init.str1.1
                0x0000000022050213        0xb drivers/built-in.o
 .rodata.do_bdinfo.str1.1
                0x000000002205021e       0xa4 cmd/built-in.o
 .rodata.do_bootd.str1.1
                0x00000000220502c2        0x8 cmd/built-in.o
 .rodata.do_bootefi.str1.1
                0x00000000220502ca       0xf4 cmd/built-in.o
 .rodata.do_bootefi_exec.str1.1
                0x00000000220503be       0xc0 cmd/built-in.o
                                         0xc9 (size before relaxing)
 .rodata.do_bootelf.str1.1
                0x000000002205047e       0x52 cmd/built-in.o
                                         0x5c (size before relaxing)
 .rodata.do_bootm.str1.1
                0x00000000220504d0       0x2a cmd/built-in.o
 .rodata.do_bootm_netbsd.str1.1
                0x00000000220504fa       0x49 common/built-in.o
                                         0x4a (size before relaxing)
 .rodata.do_bootm_plan9.str1.1
                0x0000000022050543       0x43 common/built-in.o
                                         0x4c (size before relaxing)
 .rodata.do_bootm_qnxelf.str1.1
                0x0000000022050586        0x4 common/built-in.o
 .rodata.do_bootm_rtems.str1.1
                0x0000000022050586       0x39 common/built-in.o
 .rodata.do_bootm_standalone.str1.1
                0x00000000220505bf       0x16 common/built-in.o
 .rodata.do_bootm_states.str1.1
                0x00000000220505bf      0x287 common/built-in.o
                                        0x2ff (size before relaxing)
 .rodata.do_bootvx.str1.1
                0x0000000022050846      0x1c5 cmd/built-in.o
                                        0x1d0 (size before relaxing)
 .rodata.do_bootvx_fdt.str1.1
                0x0000000022050a0b       0x57 common/built-in.o
                                         0x75 (size before relaxing)
 .rodata.do_coninfo.str1.1
                0x0000000022050a62       0x2c cmd/built-in.o
                                         0x30 (size before relaxing)
 .rodata.do_data_abort.str1.1
                0x0000000022050a8e        0xc arch/arm/lib/built-in.o
 .rodata.do_echo.str1.1
                0x0000000022050a9a        0x3 cmd/built-in.o
 .rodata.do_env_default.str1.1
                0x0000000022050a9d       0x25 cmd/built-in.o
 .rodata.do_env_edit.part.3.str1.1
                0x0000000022050ac2        0x7 cmd/built-in.o
                                          0xa (size before relaxing)
 .rodata.do_env_export.str1.1
                0x0000000022050ac9       0x2b cmd/built-in.o
                                         0x34 (size before relaxing)
 .rodata.do_env_import.str1.1
                0x0000000022050af4      0x12f cmd/built-in.o
 .rodata.do_env_print.str1.1
                0x0000000022050c23       0x3d cmd/built-in.o
 .rodata.do_fat_fsinfo.str1.1
                0x0000000022050c60       0x56 cmd/built-in.o
 .rodata.do_fat_fswrite.str1.1
                0x0000000022050cb6       0x6b cmd/built-in.o
 .rodata.do_fat_write.str1.1
                0x0000000022050d21       0xd6 fs/built-in.o
 .rodata.do_fdt.str1.1
                0x0000000022050df7      0x490 cmd/built-in.o
                                        0x4ba (size before relaxing)
 .rodata.do_fiq.str1.1
                0x0000000022051287       0x18 arch/arm/lib/built-in.o
 .rodata.do_fixup_by_path.str1.1
                0x000000002205129f       0x29 common/built-in.o
 .rodata.do_go.str1.1
                0x00000000220512c8       0x4f cmd/built-in.o
 .rodata.do_i2c_bus_num.str1.1
                0x0000000022051317       0x48 cmd/built-in.o
 .rodata.do_i2c_bus_speed.str1.1
                0x000000002205135f       0x53 cmd/built-in.o
 .rodata.do_i2c_crc.str1.1
                0x00000000220513b2       0x1f cmd/built-in.o
                                         0x26 (size before relaxing)
 .rodata.do_i2c_md.str1.1
                0x00000000220513d1        0xc cmd/built-in.o
                                         0x16 (size before relaxing)
 .rodata.do_i2c_olen.str1.1
                0x00000000220513dd       0x1f cmd/built-in.o
                                         0x23 (size before relaxing)
 .rodata.do_i2c_probe.str1.1
                0x00000000220513fc       0x1c cmd/built-in.o
 .rodata.do_i2c_reset.str1.1
                0x0000000022051418       0x24 cmd/built-in.o
 .rodata.do_i2c_show_bus.str1.1
                0x000000002205143c       0x18 cmd/built-in.o
 .rodata.do_i2c_write.str1.1
                0x0000000022051454        0x3 cmd/built-in.o
 .rodata.do_imgextract.str1.1
                0x0000000022051457      0x1af cmd/built-in.o
                                        0x296 (size before relaxing)
 .rodata.do_irq.str1.1
                0x0000000022051606       0x18 arch/arm/lib/built-in.o
                                         0x13 (size before relaxing)
 .rodata.do_itest.str1.1
                0x0000000022051606       0x1e cmd/built-in.o
 .rodata.do_load.str1.1
                0x0000000022051624       0x39 fs/built-in.o
                                         0x5b (size before relaxing)
 .rodata.do_load_serial_bin.str1.1
                0x000000002205165d      0x177 cmd/built-in.o
 .rodata.do_ls.str1.1
                0x00000000220517d4        0x2 fs/built-in.o
 .rodata.do_mem_base.str1.1
                0x00000000220517d4       0x17 cmd/built-in.o
 .rodata.do_mem_cmp.str1.1
                0x00000000220517eb       0x6e cmd/built-in.o
                                         0x73 (size before relaxing)
 .rodata.do_mem_cp.str1.1
                0x0000000022051859       0x11 cmd/built-in.o
 .rodata.do_mem_crc.str1.1
                0x000000002205186a        0x6 cmd/built-in.o
 .rodata.do_mmc_dev.str1.1
                0x000000002205186a       0x80 cmd/built-in.o
                                         0x89 (size before relaxing)
 .rodata.do_mmc_erase.str1.1
                0x00000000220518ea       0x67 cmd/built-in.o
 .rodata.do_mmc_hwpartition.str1.1
                0x0000000022051951      0x126 cmd/built-in.o
                                        0x142 (size before relaxing)
 .rodata.do_mmc_part.str1.1
                0x0000000022051a77       0x15 cmd/built-in.o
 .rodata.do_mmc_read.str1.1
                0x0000000022051a8c       0x43 cmd/built-in.o
 .rodata.do_mmc_setdsr.str1.1
                0x0000000022051acf       0x1d cmd/built-in.o
 .rodata.do_mmc_write.str1.1
                0x0000000022051aec       0x47 cmd/built-in.o
 .rodata.do_mmcinfo.str1.1
                0x0000000022051b33      0x135 cmd/built-in.o
                                        0x187 (size before relaxing)
 .rodata.do_mmcops.str1.1
                0x0000000022051c68       0x19 cmd/built-in.o
 .rodata.do_not_used.str1.1
                0x0000000022051c81        0xa arch/arm/lib/built-in.o
 .rodata.do_ping.str1.1
                0x0000000022051c8b       0x35 cmd/built-in.o
 .rodata.do_prefetch_abort.str1.1
                0x0000000022051cc0       0x10 arch/arm/lib/built-in.o
 .rodata.do_reset.str1.1
                0x0000000022051cd0        0xf arch/arm/lib/built-in.o
 .rodata.do_run.str1.1
                0x0000000022051cdf       0x1c common/built-in.o
 .rodata.do_setexpr.str1.1
                0x0000000022051cdf       0x11 cmd/built-in.o
                                         0x15 (size before relaxing)
 .rodata.do_showvar.str1.1
                0x0000000022051cf0        0xc common/built-in.o
                                         0x2f (size before relaxing)
 .rodata.do_size.str1.1
                0x0000000022051cfc        0x9 fs/built-in.o
 .rodata.do_software_interrupt.str1.1
                0x0000000022051cfc       0x14 arch/arm/lib/built-in.o
 .rodata.do_source.str1.1
                0x0000000022051d10       0x1e cmd/built-in.o
 .rodata.do_spi_flash.str1.1
                0x0000000022051d2e      0x1b5 cmd/built-in.o
                                        0x1de (size before relaxing)
 .rodata.do_undefined_instruction.str1.1
                0x0000000022051ee3       0x17 arch/arm/lib/built-in.o
 .rodata.do_usb.str1.1
                0x0000000022051efa      0x279 cmd/built-in.o
                                        0x293 (size before relaxing)
 .rodata.do_usbboot.str1.1
                0x0000000022052173        0x4 cmd/built-in.o
 .rodata.do_version.str1.1
                0x0000000022052177       0x50 cmd/built-in.o
 .rodata.do_w1.str1.1
                0x00000000220521c7       0x3c cmd/built-in.o
                                         0x50 (size before relaxing)
 .rodata.efi_bl_bind.str1.1
                0x0000000022052203       0x12 lib/built-in.o
 .rodata.efi_block_io_guid
                0x0000000022052215       0x10 lib/built-in.o
                0x0000000022052215                efi_block_io_guid
 .rodata.efi_bootmgr_load.str1.1
                0x0000000022052225        0xe lib/built-in.o
 .rodata.efi_console_register.str1.1
                0x0000000022052233       0xa1 lib/built-in.o
                                         0xa8 (size before relaxing)
 .rodata.efi_convert_single_device_node_to_text.str1.1
                0x00000000220522d4      0x12d lib/built-in.o
                                        0x137 (size before relaxing)
 .rodata.efi_cout_clear_screen.str1.1
                0x0000000022052401        0x5 lib/built-in.o
 .rodata.efi_cout_enable_cursor.str1.1
                0x0000000022052406        0x8 lib/built-in.o
 .rodata.efi_cout_set_attribute.str1.1
                0x000000002205240e       0x17 lib/built-in.o
 .rodata.efi_cout_set_cursor_position.str1.1
                0x0000000022052425        0x9 lib/built-in.o
 .rodata.efi_disk_create_partitions.str1.1
                0x000000002205242e       0x22 lib/built-in.o
 .rodata.efi_disk_register.str1.1
                0x0000000022052450       0x67 lib/built-in.o
 .rodata.efi_driver_init.str1.1
                0x00000000220524b7       0x58 lib/built-in.o
 .rodata.efi_exit.str1.1
                0x000000002205250f       0x17 lib/built-in.o
 .rodata.efi_file_from_path.str1.1
                0x0000000022052526       0x10 lib/built-in.o
 .rodata.efi_file_info_guid
                0x0000000022052536       0x10 lib/built-in.o
                0x0000000022052536                efi_file_info_guid
 .rodata.efi_file_system_info_guid
                0x0000000022052546       0x10 lib/built-in.o
                0x0000000022052546                efi_file_system_info_guid
 .rodata.efi_get_variable.str1.1
                0x0000000022052556       0x30 lib/built-in.o
                                         0x37 (size before relaxing)
 .rodata.efi_global_variable_guid
                0x0000000022052586       0x10 lib/built-in.o
                0x0000000022052586                efi_global_variable_guid
 .rodata.efi_guid_device_path
                0x0000000022052596       0x10 lib/built-in.o
                0x0000000022052596                efi_guid_device_path
 .rodata.efi_guid_device_path_to_text_protocol
                0x00000000220525a6       0x10 lib/built-in.o
                0x00000000220525a6                efi_guid_device_path_to_text_protocol
 .rodata.efi_guid_device_path_utilities_protocol
                0x00000000220525b6       0x10 lib/built-in.o
                0x00000000220525b6                efi_guid_device_path_utilities_protocol
 .rodata.efi_guid_driver_binding_protocol
                0x00000000220525c6       0x10 lib/built-in.o
                0x00000000220525c6                efi_guid_driver_binding_protocol
 .rodata.efi_guid_event_group_exit_boot_services
                0x00000000220525d6       0x10 lib/built-in.o
                0x00000000220525d6                efi_guid_event_group_exit_boot_services
 .rodata.efi_guid_event_group_reset_system
                0x00000000220525e6       0x10 lib/built-in.o
                0x00000000220525e6                efi_guid_event_group_reset_system
 .rodata.efi_guid_fdt
                0x00000000220525f6       0x10 lib/built-in.o
                0x00000000220525f6                efi_guid_fdt
 .rodata.efi_guid_loaded_image
                0x0000000022052606       0x10 lib/built-in.o
                0x0000000022052606                efi_guid_loaded_image
 .rodata.efi_guid_text_input_protocol
                0x0000000022052616       0x10 lib/built-in.o
                0x0000000022052616                efi_guid_text_input_protocol
 .rodata.efi_guid_text_output_protocol
                0x0000000022052626       0x10 lib/built-in.o
                0x0000000022052626                efi_guid_text_output_protocol
 .rodata.efi_install_fdt.str1.1
                0x0000000022052636       0x6a cmd/built-in.o
 .rodata.efi_load_pe.str1.1
                0x00000000220526a0       0xca lib/built-in.o
 .rodata.efi_net_guid
                0x000000002205276a       0x10 lib/built-in.o
 .rodata.efi_net_register.str1.1
                0x000000002205277a       0x6d lib/built-in.o
                                         0x83 (size before relaxing)
 .rodata.efi_print_image_info.str1.1
                0x00000000220527e7       0x29 lib/built-in.o
                                         0x2b (size before relaxing)
 .rodata.efi_pxe_guid
                0x0000000022052810       0x10 lib/built-in.o
 .rodata.efi_runtime_relocate.str1.1
                0x0000000022052820       0x34 lib/built-in.o
 .rodata.efi_set_bootdev.str1.1
                0x0000000022052854        0x8 cmd/built-in.o
                                          0xb (size before relaxing)
 .rodata.efi_set_code_and_data_type.str1.1
                0x000000002205285c       0x1c lib/built-in.o
 .rodata.efi_set_variable.str1.1
                0x0000000022052878       0x18 lib/built-in.o
                                         0x1a (size before relaxing)
 .rodata.efi_setup_loaded_image.str1.1
                0x0000000022052890       0x36 lib/built-in.o
 .rodata.efi_simple_file_system_protocol_guid
                0x00000000220528c6       0x10 lib/built-in.o
                0x00000000220528c6                efi_simple_file_system_protocol_guid
 .rodata.efi_to_native.str1.1
                0x00000000220528d6        0xa lib/built-in.o
 .rodata.efi_uc_destroy.str1.1
                0x00000000220528e0       0x18 lib/built-in.o
 .rodata.efi_uc_init.str1.1
                0x00000000220528f8       0x1e lib/built-in.o
 .rodata.efi_uc_stop.str1.1
                0x0000000022052916       0x40 lib/built-in.o
 .rodata.efi_watchdog_register.str1.1
                0x0000000022052956       0x4f lib/built-in.o
 .rodata.efi_watchdog_timer_notify.str1.1
                0x00000000220529a5       0x18 lib/built-in.o
 .rodata.ehci_register.str1.1
                0x00000000220529bd       0x26 drivers/usb/host/built-in.o
 .rodata.ehci_shutdown.str1.1
                0x00000000220529e3       0x2b drivers/usb/host/built-in.o
 .rodata.ehci_submit_async.str1.1
                0x0000000022052a0e       0xb5 drivers/usb/host/built-in.o
 .rodata.ehci_submit_control_msg.str1.1
                0x0000000022052ac3       0x16 drivers/usb/host/built-in.o
 .rodata.ehci_submit_int_msg.str1.1
                0x0000000022052ad9       0x24 drivers/usb/host/built-in.o
 .rodata.ehci_td_buffer.str1.1
                0x0000000022052afd       0x29 drivers/usb/host/built-in.o
 .rodata.emit.str1.1
                0x0000000022052b26       0x1f lib/built-in.o
 .rodata.enable_periodic.isra.2.str1.1
                0x0000000022052b45       0x32 drivers/usb/host/built-in.o
 .rodata.env_callback_init.str1.1
                0x0000000022052b77        0xb env/built-in.o
 .rodata.env_complete.str1.1
                0x0000000022052b82        0x4 env/built-in.o
 .rodata.env_export.str1.1
                0x0000000022052b82       0x27 env/built-in.o
 .rodata.env_fat_load.str1.1
                0x0000000022052b82       0x25 env/built-in.o
 .rodata.env_fat_save.str1.1
                0x0000000022052ba7       0x4b env/built-in.o
                                         0x51 (size before relaxing)
 .rodata.env_flags_init.str1.1
                0x0000000022052bf2        0x7 env/built-in.o
 .rodata.env_flags_parse_varaccess.str1.1
                0x0000000022052bf9       0x3d env/built-in.o
 .rodata.env_flags_parse_vartype.str1.1
                0x0000000022052c36       0x34 env/built-in.o
 .rodata.env_flags_validate.str1.1
                0x0000000022052c6a       0xb2 env/built-in.o
                                         0xb3 (size before relaxing)
 .rodata.env_flags_varaccess_rep
                0x0000000022052d1c        0x5 env/built-in.o
 .rodata.env_flags_vartype_rep
                0x0000000022052d21        0x7 env/built-in.o
 .rodata.env_get_bootm_low.str1.1
                0x0000000022052d28        0xa common/built-in.o
 .rodata.env_get_bootm_mapsize.str1.1
                0x0000000022052d32        0xe common/built-in.o
 .rodata.env_get_bootm_size.str1.1
                0x0000000022052d40        0xb common/built-in.o
 .rodata.env_get_f.str1.1
                0x0000000022052d4b       0x30 cmd/built-in.o
 .rodata.env_import.str1.1
                0x0000000022052d7b       0x3f env/built-in.o
 .rodata.env_load.str1.1
                0x0000000022052dba       0x2d env/built-in.o
                                         0x31 (size before relaxing)
 .rodata.env_print.str1.1
                0x0000000022052de7       0x25 cmd/built-in.o
                                         0x2c (size before relaxing)
 .rodata.env_save.str1.1
                0x0000000022052e0c       0x1d env/built-in.o
 .rodata.env_set.str1.1
                0x0000000022052e29        0x7 cmd/built-in.o
 .rodata.env_set_hex.str1.1
                0x0000000022052e30        0x4 cmd/built-in.o
 .rodata.erase_seq
                0x0000000022052e34        0x4 common/built-in.o
 .rodata.eth_current_changed.str1.1
                0x0000000022052e38       0x14 net/built-in.o
 .rodata.eth_env_get_enetaddr_by_index.str1.1
                0x0000000022052e38       0x10 net/built-in.o
 .rodata.eth_env_set_enetaddr.str1.1
                0x0000000022052e48        0x4 cmd/built-in.o
 .rodata.eth_get_name.str1.1
                0x0000000022052e4c        0x8 net/built-in.o
 .rodata.eth_init.str1.1
                0x0000000022052e4c       0x11 net/built-in.o
                                         0x28 (size before relaxing)
 .rodata.eth_initialize.str1.1
                0x0000000022052e5d       0x1c net/built-in.o
                                         0x1f (size before relaxing)
 .rodata.eth_mac_skip.str1.1
                0x0000000022052e79       0x18 net/built-in.o
 .rodata.eth_post_bind.str1.1
                0x0000000022052e91       0x2b net/built-in.o
 .rodata.eth_post_probe.str1.1
                0x0000000022052ebc       0xb3 net/built-in.o
 .rodata.eth_set_current.str1.1
                0x0000000022052f6f        0x9 net/built-in.o
 .rodata.eth_write_hwaddr.str1.1
                0x0000000022052f6f       0x4e net/built-in.o
 .rodata.ext4_read_file.str1.1
                0x0000000022052fbd       0x19 fs/built-in.o
 .rodata.ext4fs_iterate_dir.str1.1
                0x0000000022052fd6       0x43 fs/built-in.o
                                         0x4a (size before relaxing)
 .rodata.ext4fs_ls.str1.1
                0x0000000022053019       0x1f fs/built-in.o
 .rodata.ext4fs_mount.str1.1
                0x0000000022053038       0x24 fs/built-in.o
 .rodata.fat_itr_root.str1.1
                0x000000002205305c       0x33 fs/built-in.o
 .rodata.fat_read_file.str1.1
                0x000000002205308f       0x1e fs/built-in.o
 .rodata.fat_set_blk_dev.str1.1
                0x00000000220530ad        0x3 fs/built-in.o
                                          0xd (size before relaxing)
 .rodata.fdt_address_cells.str1.1
                0x00000000220530b0        0xf lib/built-in.o
 .rodata.fdt_chosen.str1.1
                0x00000000220530bf       0x35 common/built-in.o
                                         0x3e (size before relaxing)
 .rodata.fdt_error.str1.1
                0x00000000220530f4       0x2d common/built-in.o
 .rodata.fdt_find_or_add_subnode.str1.1
                0x0000000022053121        0xc common/built-in.o
 .rodata.fdt_fixup_ethernet.str1.1
                0x000000002205312d       0x2e common/built-in.o
                                         0x42 (size before relaxing)
 .rodata.fdt_fixup_memory_banks.str1.1
                0x000000002205315b       0x85 common/built-in.o
                                         0x94 (size before relaxing)
 .rodata.fdt_get_alias_namelen.str1.1
                0x00000000220531e0        0x9 lib/built-in.o
 .rodata.fdt_get_phandle.str1.1
                0x00000000220531e0       0x16 lib/built-in.o
 .rodata.fdt_initrd.str1.1
                0x00000000220531e0       0x90 common/built-in.o
                                         0x97 (size before relaxing)
 .rodata.fdt_overlay_apply.str1.1
                0x0000000022053270       0x38 lib/built-in.o
                                         0x51 (size before relaxing)
 .rodata.fdt_overlay_apply_verbose.str1.1
                0x00000000220532a8       0x83 common/built-in.o
 .rodata.fdt_root.str1.1
                0x000000002205332b       0x4e common/built-in.o
 .rodata.fdt_size_cells.str1.1
                0x0000000022053379        0xc lib/built-in.o
 .rodata.fdt_strerror.str1.1
                0x0000000022053379       0x31 lib/built-in.o
 .rodata.fdt_support_default_count_cells.str1.1
                0x00000000220533aa        0xc common/built-in.o
 .rodata.fdt_translate_address.str1.1
                0x00000000220533b6       0x22 common/built-in.o
 .rodata.fdt_valid.str1.1
                0x00000000220533d8       0x79 cmd/built-in.o
                                         0x7b (size before relaxing)
 .rodata.fdtdec_add_aliases_for_id.str1.1
                0x0000000022053451        0x9 lib/built-in.o
 .rodata.fdtdec_get_chosen_prop.str1.1
                0x0000000022053451        0x8 lib/built-in.o
 .rodata.fdtdec_get_config_int.str1.1
                0x0000000022053451        0x8 lib/built-in.o
 .rodata.fdtdec_get_is_enabled.str1.1
                0x0000000022053459        0xc lib/built-in.o
 .rodata.fdtdec_prepare_fdt.str1.1
                0x0000000022053465       0x96 lib/built-in.o
 .rodata.fdtdec_setup.str1.1
                0x00000000220534fb        0xf lib/built-in.o
 .rodata.file_fat_detectfs.str1.1
                0x00000000220534fb       0x64 fs/built-in.o
                                         0x84 (size before relaxing)
 .rodata.file_fat_read_at.str1.1
                0x000000002205355f       0x17 fs/built-in.o
 .rodata.file_fat_write.str1.1
                0x0000000022053576       0x40 fs/built-in.o
 .rodata.file_get.str1.1
                0x00000000220535b6        0xc common/built-in.o
                                          0x7 (size before relaxing)
 .rodata.file_open.str1.1
                0x00000000220535b6        0xa lib/built-in.o
                                          0xb (size before relaxing)
 .rodata.find_mmc_device.str1.1
                0x00000000220535c0       0x19 drivers/built-in.o
 .rodata.fit_all_image_verify.str1.1
                0x00000000220535d9       0x51 common/built-in.o
 .rodata.fit_get_desc.str1.1
                0x000000002205362a        0xc common/built-in.o
 .rodata.fit_image_get_address.str1.1
                0x0000000022053636       0x1d common/built-in.o
 .rodata.fit_image_get_arch.str1.1
                0x0000000022053653       0x1d common/built-in.o
                                          0x5 (size before relaxing)
 .rodata.fit_image_get_comp.str1.1
                0x0000000022053653        0xc common/built-in.o
 .rodata.fit_image_get_data.str1.1
                0x0000000022053653        0x5 common/built-in.o
 .rodata.fit_image_get_data_offset.str1.1
                0x0000000022053658        0xc common/built-in.o
 .rodata.fit_image_get_data_position.str1.1
                0x0000000022053664        0xe common/built-in.o
 .rodata.fit_image_get_data_size.str1.1
                0x0000000022053672        0xa common/built-in.o
 .rodata.fit_image_get_entry.str1.1
                0x000000002205367c        0x6 common/built-in.o
 .rodata.fit_image_get_load.str1.1
                0x0000000022053682        0x6 common/built-in.o
                                          0x5 (size before relaxing)
 .rodata.fit_image_get_node.str1.1
                0x0000000022053682        0x8 common/built-in.o
 .rodata.fit_image_get_os.str1.1
                0x000000002205368a        0x8 common/built-in.o
                                          0x3 (size before relaxing)
 .rodata.fit_image_get_type.str1.1
                0x000000002205368a        0x8 common/built-in.o
                                          0x5 (size before relaxing)
 .rodata.fit_image_hash_get_algo.str1.1
                0x000000002205368a        0x5 common/built-in.o
 .rodata.fit_image_hash_get_value.str1.1
                0x000000002205368f        0x5 common/built-in.o
                                          0x6 (size before relaxing)
 .rodata.fit_image_load.str1.1
                0x000000002205368f      0x1cd common/built-in.o
                                        0x1e0 (size before relaxing)
 .rodata.fit_image_print.str1.1
                0x000000002205385c       0xd2 common/built-in.o
                                         0xdf (size before relaxing)
 .rodata.fit_image_print_data.str1.1
                0x000000002205392e       0x6b common/built-in.o
                                         0x75 (size before relaxing)
 .rodata.fit_image_print_verification_data.str1.1
                0x0000000022053999       0x19 common/built-in.o
 .rodata.fit_image_verify.str1.1
                0x00000000220539b2       0x1a common/built-in.o
                                         0x4b (size before relaxing)
 .rodata.fit_image_verify_with_data.str1.1
                0x00000000220539cc       0xe0 common/built-in.o
 .rodata.fit_print_contents.str1.1
                0x0000000022053aac      0x127 common/built-in.o
                                        0x15e (size before relaxing)
 .rodata.flush_dir_table.constprop.8.str1.1
                0x0000000022053bd3       0x21 fs/built-in.o
 .rodata.fs_devread.str1.1
                0x0000000022053bf4       0x98 fs/built-in.o
 .rodata.fs_ls_generic.str1.1
                0x0000000022053c8c       0x37 fs/built-in.o
 .rodata.fs_probe_unsupported.str1.1
                0x0000000022053cc3       0x24 fs/built-in.o
 .rodata.fs_write.str1.1
                0x0000000022053ce7       0x1f fs/built-in.o
 .rodata.generated_clk_bind.str1.1
                0x0000000022053d06        0xc drivers/built-in.o
 .rodata.generic_clk_ofdata_to_platdata.str1.1
                0x0000000022053d12        0x7 drivers/built-in.o
 .rodata.genimg_get_arch_id.str1.1
                0x0000000022053d12        0xb common/built-in.o
                                          0x4 (size before relaxing)
 .rodata.genimg_get_arch_name.str1.1
                0x0000000022053d12       0x15 common/built-in.o
 .rodata.genimg_get_comp_id.str1.1
                0x0000000022053d27       0x15 common/built-in.o
                                          0xc (size before relaxing)
 .rodata.genimg_get_comp_name.str1.1
                0x0000000022053d27       0x14 common/built-in.o
 .rodata.genimg_get_os_id.str1.1
                0x0000000022053d3b       0x14 common/built-in.o
                                          0x3 (size before relaxing)
 .rodata.genimg_get_os_name.str1.1
                0x0000000022053d3b        0xb common/built-in.o
 .rodata.genimg_get_type_id.str1.1
                0x0000000022053d46        0xb common/built-in.o
                                          0x6 (size before relaxing)
 .rodata.genimg_get_type_name.str1.1
                0x0000000022053d46        0xe common/built-in.o
 .rodata.genimg_print_size.str1.1
                0x0000000022053d54        0xc common/built-in.o
                                          0xe (size before relaxing)
 .rodata.genphy_update_link.str1.1
                0x0000000022053d60       0x54 drivers/net/phy/built-in.o
                                         0x56 (size before relaxing)
 .rodata.get_cluster.str1.1
                0x0000000022053db4       0x25 fs/built-in.o
 .rodata.get_cpu_name.str1.1
                0x0000000022053dd9      0x107 arch/arm/mach-at91/built-in.o
 .rodata.get_descriptor_len.str1.1
                0x0000000022053ee0       0x64 common/built-in.o
 .rodata.get_fatent.str1.1
                0x0000000022053f44       0x22 fs/built-in.o
 .rodata.get_local_var.str1.1
                0x0000000022053f66        0x3 common/built-in.o
 .rodata.get_phy_device_by_mask.str1.1
                0x0000000022053f69       0x29 drivers/net/phy/built-in.o
 .rodata.gpio_request_by_name_nodev.str1.1
                0x0000000022053f92        0xc drivers/gpio/built-in.o
 .rodata.gpio_request_tail.str1.1
                0x0000000022053f9e        0x8 drivers/gpio/built-in.o
                                          0xe (size before relaxing)
 .rodata.gzip_parse_header.str1.1
                0x0000000022053fa6       0x3e lib/built-in.o
 .rodata.hang.str1.1
                0x0000000022053fe4       0x2a lib/built-in.o
 .rodata.hash_command.str1.1
                0x000000002205400e       0x58 common/built-in.o
                                         0x5f (size before relaxing)
 .rodata.hex_asc
                0x0000000022054066       0x11 lib/built-in.o
                0x0000000022054066                hex_asc
 .rodata.hexchars.9334
                0x0000000022054077       0x11 lib/built-in.o
 .rodata.hexport_r.str1.1
                0x0000000022054088       0x30 lib/built-in.o
 .rodata.himport_r.str1.1
                0x00000000220540b8       0x99 lib/built-in.o
 .rodata.i2c_chip_ofdata_to_platdata.str1.1
                0x0000000022054151       0x16 drivers/i2c/built-in.o
                                         0x1a (size before relaxing)
 .rodata.i2c_deblock.str1.1
                0x0000000022054167       0x13 drivers/i2c/built-in.o
 .rodata.i2c_get_chip.str1.1
                0x0000000022054167       0x20 drivers/i2c/built-in.o
 .rodata.i2c_get_cur_bus.str1.1
                0x0000000022054187       0x15 cmd/built-in.o
 .rodata.i2c_post_probe.str1.1
                0x000000002205419c       0x10 drivers/i2c/built-in.o
 .rodata.image_info.str1.1
                0x000000002205419c       0xef cmd/built-in.o
 .rodata.image_print_contents.str1.1
                0x000000002205428b       0xd0 common/built-in.o
                                         0xd4 (size before relaxing)
 .rodata.image_setup_libfdt.str1.1
                0x000000002205435b       0x8f common/built-in.o
 .rodata.inflate.str1.1
                0x00000000220543ea      0x158 lib/built-in.o
 .rodata.inflate_fast.str1.1
                0x0000000022054542       0x50 lib/built-in.o
 .rodata.init_baud_rate.str1.1
                0x0000000022054592        0x9 common/built-in.o
 .rodata.init_mmc_device.str1.1
                0x000000002205459b       0x1a cmd/built-in.o
 .rodata.initcall_run_list.str1.1
                0x00000000220545b5       0x31 lib/built-in.o
 .rodata.initr_env.str1.1
                0x00000000220545e6       0x20 common/built-in.o
                                         0x29 (size before relaxing)
 .rodata.initr_ethaddr.str1.1
                0x0000000022054606        0x8 common/built-in.o
 .rodata.initr_mmc.str1.1
                0x0000000022054606        0x8 common/built-in.o
 .rodata.initr_net.str1.1
                0x000000002205460e        0x8 common/built-in.o
 .rodata.insert_var_value_sub.str1.1
                0x0000000022054616        0x6 common/built-in.o
 .rodata.ip_to_string.str1.1
                0x000000002205461c        0xc net/built-in.o
 .rodata.list_sort.str1.1
                0x0000000022054628       0x34 lib/built-in.o
 .rodata.lists_bind_drivers.str1.1
                0x000000002205465c       0x1a drivers/built-in.o
 .rodata.lists_bind_fdt.str1.1
                0x0000000022054676       0x3f drivers/built-in.o
                                         0x4a (size before relaxing)
 .rodata.lmb_alloc_base.str1.1
                0x00000000220546b5       0x34 lib/built-in.o
 .rodata.load_serial_ymodem.str1.1
                0x00000000220546e9       0x31 cmd/built-in.o
                                         0x35 (size before relaxing)
 .rodata.macb_eth_probe.str1.1
                0x000000002205471a        0x9 drivers/net/built-in.o
 .rodata.macb_send.str1.1
                0x0000000022054723       0x48 drivers/net/built-in.o
 .rodata.macb_start.str1.1
                0x000000002205476b      0x14a drivers/net/built-in.o
                                        0x14d (size before relaxing)
 .rodata.main_loop.str1.1
                0x00000000220548b5       0x11 common/built-in.o
 .rodata.match.str1.1
                0x00000000220548c6       0x18 lib/built-in.o
 .rodata.match_entry.str1.1
                0x00000000220548de       0x1b lib/built-in.o
 .rodata.match_string.str1.1
                0x00000000220548de       0x2c lib/built-in.o
 .rodata.mdio_register.str1.1
                0x000000002205490a       0x2c common/built-in.o
 .rodata.miiphy_get_dev_by_name.str1.1
                0x0000000022054936       0x13 common/built-in.o
 .rodata.mmc_berase.str1.1
                0x0000000022054949       0x6f drivers/built-in.o
 .rodata.mmc_bind.str1.1
                0x00000000220549b8        0x8 drivers/built-in.o
                                          0xc (size before relaxing)
 .rodata.mmc_bread.str1.1
                0x00000000220549c0       0x47 drivers/built-in.o
 .rodata.mmc_bwrite.str1.1
                0x0000000022054a07       0x12 drivers/built-in.o
                                         0x59 (size before relaxing)
 .rodata.mmc_hwpart_config.str1.1
                0x0000000022054a19      0x19f drivers/built-in.o
 .rodata.mmc_initialize.str1.1
                0x0000000022054bb8       0x17 drivers/built-in.o
 .rodata.mmc_mode_name.str1.1
                0x0000000022054bcf        0xd drivers/built-in.o
 .rodata.mmc_send_status.str1.1
                0x0000000022054bdc       0x32 drivers/built-in.o
 .rodata.mmc_start_init.str1.1
                0x0000000022054c0e       0x3f drivers/built-in.o
 .rodata.mmc_startup.str1.1
                0x0000000022054c4d       0x4f drivers/built-in.o
                                         0x55 (size before relaxing)
 .rodata.mod_i2c_mem.isra.1.str1.1
                0x0000000022054c9c       0x21 cmd/built-in.o
                                         0x28 (size before relaxing)
 .rodata.mod_mem.isra.0.str1.1
                0x0000000022054cbd        0xc cmd/built-in.o
                                         0x1d (size before relaxing)
 .rodata.mtd_arg_off.str1.1
                0x0000000022054cc9       0x38 drivers/mtd/built-in.o
 .rodata.mtd_arg_off_size.str1.1
                0x0000000022054d01       0x71 drivers/mtd/built-in.o
 .rodata.multipliers
                0x0000000022054d72       0x10 drivers/built-in.o
 .rodata.names.8495
                0x0000000022054d82        0x6 lib/built-in.o
 .rodata.net_auto_load.str1.1
                0x0000000022054d88        0xd net/built-in.o
 .rodata.net_bcast_ethaddr
                0x0000000022054d95        0x6 net/built-in.o
                0x0000000022054d95                net_bcast_ethaddr
 .rodata.net_loop.str1.1
                0x0000000022054d9b       0xe5 net/built-in.o
                                         0xf7 (size before relaxing)
 .rodata.net_process_received_packet.str1.1
                0x0000000022054e80       0x1d net/built-in.o
 .rodata.net_start_again.str1.1
                0x0000000022054e9d        0xe net/built-in.o
                                         0x15 (size before relaxing)
 .rodata.netboot_common.str1.1
                0x0000000022054eab       0x16 cmd/built-in.o
                                         0x4a (size before relaxing)
 .rodata.nfs_handler.str1.1
                0x0000000022054ec1       0x56 net/built-in.o
 .rodata.nfs_lookup_reply.str1.1
                0x0000000022054f17       0x25 net/built-in.o
                                         0x27 (size before relaxing)
 .rodata.nfs_read_reply.isra.0.str1.1
                0x0000000022054f3c        0x4 net/built-in.o
 .rodata.nfs_readlink_reply.str1.1
                0x0000000022054f40        0x2 net/built-in.o
 .rodata.nfs_start.str1.1
                0x0000000022054f40       0x1e net/built-in.o
                                         0x1f (size before relaxing)
 .rodata.nfs_timeout_handler.str1.1
                0x0000000022054f5e       0x2a net/built-in.o
 .rodata.ofnode_get_chosen_prop.str1.1
                0x0000000022054f88        0x8 drivers/built-in.o
 .rodata.ofnode_pre_reloc.str1.1
                0x0000000022054f88       0x30 drivers/built-in.o
 .rodata.on_baudrate.str1.1
                0x0000000022054f88       0x42 drivers/serial/built-in.o
                                         0x74 (size before relaxing)
 .rodata.on_callbacks.str1.1
                0x0000000022054fca      0x105 env/built-in.o
 .rodata.on_console.str1.1
                0x00000000220550cf        0x5 common/built-in.o
                                         0x27 (size before relaxing)
 .rodata.on_flags.str1.1
                0x00000000220550cf       0x5b env/built-in.o
 .rodata.overlay_adjust_node_phandles.str1.1
                0x000000002205512a        0xe lib/built-in.o
                                         0x16 (size before relaxing)
 .rodata.overlay_get_target.str1.1
                0x0000000022055138       0x13 lib/built-in.o
 .rodata.parse_attr.part.0.str1.1
                0x000000002205514b       0x1a lib/built-in.o
                                         0x23 (size before relaxing)
 .rodata.parse_stream_outer.str1.1
                0x0000000022055165       0x4d common/built-in.o
 .rodata.parse_string_outer.str1.1
                0x00000000220551b2        0x2 common/built-in.o
 .rodata.part_get_info_extended.constprop.1.str1.1
                0x00000000220551b2        0x7 disk/built-in.o
 .rodata.part_get_info_whole_disk.str1.1
                0x00000000220551b2        0xb disk/built-in.o
                                         0x12 (size before relaxing)
 .rodata.part_print.str1.1
                0x00000000220551bd       0x87 disk/built-in.o
                                         0x90 (size before relaxing)
 .rodata.part_print_dos.str1.1
                0x0000000022055244       0x2a disk/built-in.o
 .rodata.part_set_generic_name.str1.1
                0x000000002205526e        0x7 disk/built-in.o
                                          0xa (size before relaxing)
 .rodata.phy_connect.str1.1
                0x0000000022055275       0x23 drivers/net/phy/built-in.o
 .rodata.phy_connect_dev.str1.1
                0x0000000022055298       0x2f drivers/net/phy/built-in.o
 .rodata.phy_reset.str1.1
                0x00000000220552c7       0x15 drivers/net/phy/built-in.o
 .rodata.pinconfig_post_bind.str1.1
                0x00000000220552dc        0xa drivers/built-in.o
                                         0x15 (size before relaxing)
 .rodata.pinctrl_select_state.str1.1
                0x00000000220552e6       0x31 drivers/built-in.o
 .rodata.ping_start.str1.1
                0x0000000022055317       0x11 net/built-in.o
 .rodata.print_buffer.str1.1
                0x0000000022055328        0x6 lib/built-in.o
                                         0x17 (size before relaxing)
 .rodata.print_cpuinfo.str1.1
                0x000000002205532e       0x5d arch/arm/mach-at91/built-in.o
 .rodata.print_data.str1.1
                0x000000002205538b       0x27 cmd/built-in.o
                                         0x32 (size before relaxing)
 .rodata.print_freq.str1.1
                0x00000000220553b2       0x1b lib/built-in.o
 .rodata.print_mmc_devices.str1.1
                0x00000000220553cd       0x12 drivers/built-in.o
                                         0x1c (size before relaxing)
 .rodata.print_num.str1.1
                0x00000000220553df       0x10 cmd/built-in.o
 .rodata.print_partition_extended.str1.1
                0x00000000220553ef       0x83 disk/built-in.o
                                         0x84 (size before relaxing)
 .rodata.print_size.str1.1
                0x0000000022055472       0x15 lib/built-in.o
 .rodata.quantifier.str1.1
                0x0000000022055487       0x17 lib/built-in.o
 .rodata.read_allocated_block.str1.1
                0x000000002205549e      0x240 fs/built-in.o
 .rodata.read_bootsectandvi.str1.1
                0x00000000220556de       0x1b fs/built-in.o
 .rodata.realloc.str1.1
                0x00000000220556f9       0x25 common/built-in.o
 .rodata.regex_callback.str1.1
                0x000000002205571e        0x5 env/built-in.o
                                         0x20 (size before relaxing)
 .rodata.regex_sub.part.1.str1.1
                0x0000000022055723       0xbd cmd/built-in.o
 .rodata.regmap_init_mem.str1.1
                0x00000000220557e0        0x4 drivers/built-in.o
 .rodata.run_list_real.str1.1
                0x00000000220557e0       0x45 common/built-in.o
                                         0x4b (size before relaxing)
 .rodata.sam9x5_periph_clk_bind.str1.1
                0x0000000022055825        0xb drivers/built-in.o
 .rodata.sdhci_probe.str1.1
                0x0000000022055825       0x24 drivers/built-in.o
 .rodata.sdhci_reset.isra.3.str1.1
                0x0000000022055849       0x21 drivers/built-in.o
 .rodata.sdhci_send_command.str1.1
                0x000000002205586a       0x76 drivers/built-in.o
 .rodata.sdhci_set_clock.isra.5.str1.1
                0x00000000220558e0       0x4e drivers/built-in.o
 .rodata.sdhci_setup_cfg.str1.1
                0x000000002205592e       0x33 drivers/built-in.o
 .rodata.serial_init.str1.1
                0x0000000022055961       0x23 drivers/serial/built-in.o
                                         0x2b (size before relaxing)
 .rodata.set_default_env.str1.1
                0x0000000022055984       0x2e env/built-in.o
                                         0x55 (size before relaxing)
 .rodata.set_local_var.str1.1
                0x00000000220559b2       0x59 common/built-in.o
 .rodata.set_working_fdt_addr.str1.1
                0x0000000022055a0b        0x8 cmd/built-in.o
 .rodata.sha1_padding
                0x0000000022055a13       0x40 lib/built-in.o
 .rodata.show_bus.str1.1
                0x0000000022055a53       0x3f cmd/built-in.o
                                         0x41 (size before relaxing)
 .rodata.show_devices.str1.1
                0x0000000022055a92       0x2d drivers/built-in.o
                                         0x36 (size before relaxing)
 .rodata.show_dram_config.str1.1
                0x0000000022055abf        0x1 common/built-in.o
 .rodata.show_regs.str1.1
                0x0000000022055abf      0x114 arch/arm/lib/built-in.o
                                        0x140 (size before relaxing)
 .rodata.simple_bus_post_bind.str1.1
                0x0000000022055bd3        0x7 drivers/built-in.o
 .rodata.smbios_guid
                0x0000000022055bd3       0x10 lib/built-in.o
 .rodata.smbios_write_type0.str1.1
                0x0000000022055be3       0x39 lib/built-in.o
                                         0x40 (size before relaxing)
 .rodata.smbios_write_type1.str1.1
                0x0000000022055c1c        0x8 lib/built-in.o
 .rodata.smbios_write_type2.str1.1
                0x0000000022055c1c       0x13 lib/built-in.o
 .rodata.smbios_write_type3.str1.1
                0x0000000022055c2f       0x13 lib/built-in.o
                                          0x6 (size before relaxing)
 .rodata.smbios_write_type4.str1.1
                0x0000000022055c2f        0x8 lib/built-in.o
 .rodata.source.str1.1
                0x0000000022055c2f       0xfe cmd/built-in.o
                                        0x114 (size before relaxing)
 .rodata.spi_flash_3to4_erase.10174
                0x0000000022055d2d        0x4 drivers/mtd/spi/built-in.o
 .rodata.spi_flash_3to4_read.10166
                0x0000000022055d31        0xc drivers/mtd/spi/built-in.o
 .rodata.spi_flash_3to4_write.10170
                0x0000000022055d3d        0x6 drivers/mtd/spi/built-in.o
 .rodata.spi_flash_cmd_erase_ops.str1.1
                0x0000000022055d43       0x63 drivers/mtd/spi/built-in.o
 .rodata.spi_flash_cmd_write_ops.str1.1
                0x0000000022055da6       0x30 drivers/mtd/spi/built-in.o
 .rodata.spi_flash_decode_fdt.str1.1
                0x0000000022055dd6        0xb drivers/mtd/spi/built-in.o
 .rodata.spi_flash_probe_bus_cs.str1.1
                0x0000000022055de1       0x1e drivers/mtd/spi/built-in.o
 .rodata.spi_flash_scan.str1.1
                0x0000000022055dff      0x160 drivers/mtd/spi/built-in.o
                                        0x163 (size before relaxing)
 .rodata.spi_flash_std_probe.str1.1
                0x0000000022055f5f       0x1c drivers/mtd/spi/built-in.o
 .rodata.spi_flash_wait_till_ready.str1.1
                0x0000000022055f7b        0xe drivers/mtd/spi/built-in.o
 .rodata.spi_get_bus_and_cs.str1.1
                0x0000000022055f89       0x3d drivers/spi/built-in.o
 .rodata.spi_post_probe.str1.1
                0x0000000022055fc6       0x12 drivers/spi/built-in.o
 .rodata.spi_set_speed_mode.str1.1
                0x0000000022055fd8       0x35 drivers/spi/built-in.o
 .rodata.spi_slave_ofdata_to_platdata.str1.1
                0x000000002205600d       0xa0 drivers/spi/built-in.o
                                         0xa4 (size before relaxing)
 .rodata.sst26_lock_ctl.str1.1
                0x00000000220560ad       0x59 drivers/mtd/spi/built-in.o
 .rodata.stdio_add_devices.str1.1
                0x0000000022056106        0x7 common/built-in.o
 .rodata.stdio_print_current_devices.str1.1
                0x0000000022056106       0x70 common/built-in.o
                                         0x74 (size before relaxing)
 .rodata.store_char_in_data.str1.1
                0x0000000022056176       0x1f lib/built-in.o
 .rodata.str1.1
                0x0000000022056195       0xeb arch/arm/lib/built-in.o
 .rodata.str1.1
                0x0000000022056280     0x2290 cmd/built-in.o
                                       0x23f9 (size before relaxing)
 .rodata.str1.1
                0x0000000022058510      0x856 common/built-in.o
                                        0x8cc (size before relaxing)
 .rodata.str1.1
                0x0000000022058d66       0x17 disk/built-in.o
                                         0x1a (size before relaxing)
 .rodata.str1.1
                0x0000000022058d7d      0x5d7 drivers/built-in.o
                                        0x61d (size before relaxing)
 .rodata.str1.1
                0x0000000022059354       0x3c drivers/gpio/built-in.o
                                         0x49 (size before relaxing)
 .rodata.str1.1
                0x0000000022059390       0xbb drivers/i2c/built-in.o
                                         0xbf (size before relaxing)
 .rodata.str1.1
                0x000000002205944b      0x2e2 drivers/mtd/spi/built-in.o
                                        0x2f0 (size before relaxing)
 .rodata.str1.1
                0x000000002205972d       0x6d drivers/net/built-in.o
 .rodata.str1.1
                0x000000002205979a       0x66 drivers/net/phy/built-in.o
                                         0x7f (size before relaxing)
 .rodata.str1.1
                0x0000000022059800       0x3c drivers/serial/built-in.o
                                         0x4c (size before relaxing)
 .rodata.str1.1
                0x000000002205983c       0x59 drivers/spi/built-in.o
                                         0x5d (size before relaxing)
 .rodata.str1.1
                0x0000000022059895       0x32 drivers/usb/host/built-in.o
                                         0x36 (size before relaxing)
 .rodata.str1.1
                0x00000000220598c7      0x105 env/built-in.o
                                         0x14 (size before relaxing)
 .rodata.str1.1
                0x00000000220598c7       0x15 fs/built-in.o
 .rodata.str1.1
                0x00000000220598dc      0x529 lib/built-in.o
                                        0x538 (size before relaxing)
 .rodata.str1.1
                0x0000000022059e05        0x6 net/built-in.o
                                         0x3e (size before relaxing)
 .rodata.str1.1
                0x0000000022059e0b       0xdc test/dm/built-in.o
                                         0xe2 (size before relaxing)
 .rodata.string.str1.1
                0x0000000022059ee7        0x7 lib/built-in.o
 .rodata.strmhz.str1.1
                0x0000000022059eee        0x7 lib/built-in.o
                                          0xb (size before relaxing)
 .rodata.substitute.str1.1
                0x0000000022059ef5       0x28 cmd/built-in.o
 .rodata.syntax_err.str1.1
                0x0000000022059f1d        0xe common/built-in.o
 .rodata.syscon_node_to_regmap.str1.1
                0x0000000022059f2b        0x7 drivers/built-in.o
 .rodata.tab_seq
                0x0000000022059f32        0x9 common/built-in.o
 .rodata.test_block_type.str1.1
                0x0000000022059f3b        0xa disk/built-in.o
 .rodata.tftp_handler.str1.1
                0x0000000022059f45       0x72 net/built-in.o
                                         0x80 (size before relaxing)
 .rodata.tftp_send.str1.1
                0x0000000022059fb7       0x36 net/built-in.o
                                         0x42 (size before relaxing)
 .rodata.tftp_start.str1.1
                0x0000000022059fed      0x156 net/built-in.o
                                        0x181 (size before relaxing)
 .rodata.tftp_timeout_handler.str1.1
                0x000000002205a143       0x2a net/built-in.o
                                         0x2d (size before relaxing)
 .rodata.timer_pre_probe.str1.1
                0x000000002205a16d       0x10 drivers/built-in.o
 .rodata.u_boot_hush_start.str1.1
                0x000000002205a16d       0x12 common/built-in.o
 .rodata.uclass_resolve_seq.str1.1
                0x000000002205a17f       0x27 drivers/built-in.o
 .rodata.us_direction
                0x000000002205a1a6       0x20 common/built-in.o
 .rodata.usb_child_post_bind.str1.1
                0x000000002205a1c6       0x25 drivers/usb/host/built-in.o
 .rodata.usb_display_class_sub.str1.1
                0x000000002205a1eb       0xb6 cmd/built-in.o
                                         0xbc (size before relaxing)
 .rodata.usb_display_config.str1.1
                0x000000002205a2a1      0x10d cmd/built-in.o
                                        0x118 (size before relaxing)
 .rodata.usb_display_desc.str1.1
                0x000000002205a3ae       0xac cmd/built-in.o
                                         0xae (size before relaxing)
 .rodata.usb_display_string.str1.1
                0x000000002205a45a        0xd cmd/built-in.o
 .rodata.usb_find_usb2_hub_address_port.str1.1
                0x000000002205a467       0x36 common/built-in.o
 .rodata.usb_get_class_desc.str1.1
                0x000000002205a49d       0x64 cmd/built-in.o
                                         0x65 (size before relaxing)
 .rodata.usb_get_configuration_len.str1.1
                0x000000002205a501       0x58 common/built-in.o
 .rodata.usb_hub_configure.str1.1
                0x000000002205a559       0x5f common/built-in.o
 .rodata.usb_hub_port_connect_change.str1.1
                0x000000002205a5b8       0x18 common/built-in.o
 .rodata.usb_init.str1.1
                0x000000002205a5d0       0x7e drivers/usb/host/built-in.o
 .rodata.usb_mass_storage_probe.str1.1
                0x000000002205a64e       0x16 common/built-in.o
 .rodata.usb_scan_bus.isra.3.str1.1
                0x000000002205a664       0x4d drivers/usb/host/built-in.o
                                         0x5f (size before relaxing)
 .rodata.usb_scan_device.str1.1
                0x000000002205a6b1       0x2a drivers/usb/host/built-in.o
 .rodata.usb_select_config.str1.1
                0x000000002205a6db      0x220 common/built-in.o
 .rodata.usb_set_interface.str1.1
                0x000000002205a8fb       0x1f common/built-in.o
 .rodata.usb_setup_descriptor.str1.1
                0x000000002205a91a       0x1d common/built-in.o
 .rodata.usb_setup_device.str1.1
                0x000000002205a937       0x68 common/built-in.o
 .rodata.usb_show_tree_graph.str1.1
                0x000000002205a99f       0x2b cmd/built-in.o
                                         0x3a (size before relaxing)
 .rodata.usb_stor_CBI_get_status.isra.2.str1.1
                0x000000002205a9ca       0x1f common/built-in.o
 .rodata.usb_stor_CB_transport.str1.1
                0x000000002205a9e9       0x6e common/built-in.o
 .rodata.usb_stor_get_info.str1.1
                0x000000002205aa57       0x5d common/built-in.o
 .rodata.usb_stor_info.str1.1
                0x000000002205aab4       0x32 common/built-in.o
                                         0x40 (size before relaxing)
 .rodata.usb_stor_scan.str1.1
                0x000000002205aae6       0x48 common/built-in.o
 .rodata.usb_storage_probe.str1.1
                0x000000002205ab2e       0x5c common/built-in.o
 .rodata.utmi_clk_enable.str1.1
                0x000000002205ab8a       0x3c drivers/built-in.o
 .rodata.utmi_clk_ofdata_to_platdata.str1.1
                0x000000002205abc6        0xb drivers/built-in.o
 .rodata.uuid_bin_to_str.str1.1
                0x000000002205abd1        0x5 lib/built-in.o
 .rodata.valid_elf_image.str1.1
                0x000000002205abd1       0x52 cmd/built-in.o
 .rodata.var_complete.str1.1
                0x000000002205ac23        0x1 common/built-in.o
 .rodata.version_string
                0x000000002205ac23       0x54 cmd/built-in.o
                0x000000002205ac23                version_string
 .rodata.w1_gpio_ofdata_to_platdata.str1.1
                0x000000002205ac77       0x18 drivers/built-in.o
                                         0x1e (size before relaxing)
 .rodata.w1_read.str1.1
                0x000000002205ac8f       0xa6 cmd/built-in.o
                                         0xab (size before relaxing)
 .rodata.write_smbios_table.str1.1
                0x000000002205ad35        0xb lib/built-in.o
 .rodata.xmalloc.str1.1
                0x000000002205ad40       0x1e common/built-in.o
 .rodata.xyzModem_error.str1.1
                0x000000002205ad5e        0xe common/built-in.o
 .rodata.xyzModem_stream_close.str1.1
                0x000000002205ad6c       0x47 common/built-in.o
                                         0x4b (size before relaxing)
 .rodata.xyzModem_stream_open.str1.1
                0x000000002205adb3        0x2 common/built-in.o
 .rodata.zunzip.str1.1
                0x000000002205adb3       0x47 lib/built-in.o

.hash           0x000000002205adfc       0x18
 .hash          0x000000002205adfc       0x18 arch/arm/cpu/armv7/start.o
                0x000000002205ae14                . = ALIGN (0x4)

.data           0x000000002205ae14     0x2538
 *(.data*)
 .data.rel.ro   0x000000002205ae14        0x0 arch/arm/cpu/armv7/start.o
 .data.bootm_help_text
                0x000000002205ae14      0x4cf cmd/built-in.o
 *fill*         0x000000002205b2e3        0x1 
 .data.cmd_bootm_sub
                0x000000002205b2e4       0xfc cmd/built-in.o
 .data.source_help_text
                0x000000002205b3e0       0xac cmd/built-in.o
 .data.cmd_blkc_sub
                0x000000002205b48c       0x38 cmd/built-in.o
 .data.bootefi_help_text
                0x000000002205b4c4      0x188 cmd/built-in.o
 .data.efi_obj_list_initialized
                0x000000002205b64c        0x4 cmd/built-in.o
 .data.bootz_help_text
                0x000000002205b650      0x208 cmd/built-in.o
 .data.fdt_help_text
                0x000000002205b858      0x648 cmd/built-in.o
 .data.root.8445
                0x000000002205bea0        0x2 cmd/built-in.o
 .data.tabs.8532
                0x000000002205bea2       0x21 cmd/built-in.o
 *fill*         0x000000002205bec3        0x1 
 .data.cmd_i2c_sub
                0x000000002205bec4      0x1a4 cmd/built-in.o
 .data.i2c_dp_last_length
                0x000000002205c068        0x4 cmd/built-in.o
 .data.i2c_help_text
                0x000000002205c06c      0x3e9 cmd/built-in.o
 *fill*         0x000000002205c455        0x3 
 .data.dp_last_length
                0x000000002205c458        0x4 cmd/built-in.o
 .data.cmd_mmc  0x000000002205c45c      0x118 cmd/built-in.o
 .data.curr_device
                0x000000002205c574        0x4 cmd/built-in.o
 .data.usb_stor_curr_dev
                0x000000002205c578        0x4 cmd/built-in.o
 .data.imgextract_help_text
                0x000000002205c57c       0xb2 cmd/built-in.o
 *fill*         0x000000002205c62e        0x2 
 .data.cmd_env_sub
                0x000000002205c630      0x118 cmd/built-in.o
 .data.env_help_text
                0x000000002205c748      0x24f cmd/built-in.o
 *fill*         0x000000002205c997        0x1 
 .data.env_id   0x000000002205c998        0x4 cmd/built-in.o
 .data.hash_algo
                0x000000002205c99c       0x54 common/built-in.o
 .data.reserved_list
                0x000000002205c9f0       0x84 common/built-in.o
 .data.init_sequence_r
                0x000000002205ca74       0x78 common/built-in.o
 .data.of_busses
                0x000000002205caec       0x18 common/built-in.o
 .data.usb_scan_list
                0x000000002205cb04        0x8 common/built-in.o
 .data.hist_cur
                0x000000002205cb0c        0x4 common/built-in.o
 .data.av_      0x000000002205cb10      0x408 common/built-in.o
 .data.sbrk_base
                0x000000002205cf18        0x4 common/built-in.o
 .data.trim_threshold
                0x000000002205cf1c        0x4 common/built-in.o
 .data.load_addr
                0x000000002205cf20        0x4 common/built-in.o
                0x000000002205cf20                load_addr
 .data.stdio_names
                0x000000002205cf24        0xc common/built-in.o
                0x000000002205cf24                stdio_names
 .data.at91_slow_clk_ops
                0x000000002205cf30       0x20 drivers/built-in.o
 .data.main_osc_clk_ops
                0x000000002205cf50       0x20 drivers/built-in.o
 .data.plla_clk_ops
                0x000000002205cf70       0x20 drivers/built-in.o
 .data.at91_plladiv_clk_ops
                0x000000002205cf90       0x20 drivers/built-in.o
 .data.at91_master_clk_ops
                0x000000002205cfb0       0x20 drivers/built-in.o
 .data.system_clk_ops
                0x000000002205cfd0       0x20 drivers/built-in.o
 .data.periph_clk_ops
                0x000000002205cff0       0x20 drivers/built-in.o
 .data.utmi_clk_ops
                0x000000002205d010       0x20 drivers/built-in.o
 .data.sama5d4_h32mx_clk_ops
                0x000000002205d030       0x20 drivers/built-in.o
 .data.generic_clk_ops
                0x000000002205d050       0x20 drivers/built-in.o
 .data._stats   0x000000002205d070       0x14 drivers/built-in.o
 .data.block_cache
                0x000000002205d084        0x8 drivers/built-in.o
 .data.cmd_timeout.9950
                0x000000002205d08c        0x4 drivers/built-in.o
 .data.genphy_driver
                0x000000002205d090       0x34 drivers/net/phy/built-in.o
 .data.phy_drivers
                0x000000002205d0c4        0x8 drivers/net/phy/built-in.o
 .data.descriptor
                0x000000002205d0cc       0x39 drivers/usb/host/built-in.o
 *fill*         0x000000002205d105        0x3 
 .data.ehci_usb_ops
                0x000000002205d108       0x28 drivers/usb/host/built-in.o
                0x000000002205d108                ehci_usb_ops
 .data.env_htab
                0x000000002205d130       0x10 env/built-in.o
                0x000000002205d130                env_htab
 .data.first_call
                0x000000002205d140        0x8 env/built-in.o
 .data.fstypes  0x000000002205d148       0xa8 fs/built-in.o
 .data.ext4fs_indir1_blkno
                0x000000002205d1f0        0x4 fs/built-in.o
                0x000000002205d1f0                ext4fs_indir1_blkno
 .data.ext4fs_indir2_blkno
                0x000000002205d1f4        0x4 fs/built-in.o
                0x000000002205d1f4                ext4fs_indir2_blkno
 .data.ext4fs_indir3_blkno
                0x000000002205d1f8        0x4 fs/built-in.o
                0x000000002205d1f8                ext4fs_indir3_blkno
 .data.efi_events
                0x000000002205d1fc        0x8 lib/built-in.o
                0x000000002205d1fc                efi_events
 .data.efi_is_direct_boot
                0x000000002205d204        0x1 lib/built-in.o
 *fill*         0x000000002205d205        0x3 
 .data.efi_obj_list
                0x000000002205d208        0x8 lib/built-in.o
                0x000000002205d208                efi_obj_list
 .data.efi_tpl  0x000000002205d210        0x4 lib/built-in.o
 .data.efi_runtime_mmio
                0x000000002205d214        0x8 lib/built-in.o
                0x000000002205d214                efi_runtime_mmio
 .data.lastoff.10870
                0x000000002205d21c        0x4 lib/built-in.o
 .data.efi_con_in
                0x000000002205d220        0xc lib/built-in.o
                0x000000002205d220                efi_con_in
 .data.efi_con_mode
                0x000000002205d22c       0x18 lib/built-in.o
 .data.efi_con_out
                0x000000002205d244       0x28 lib/built-in.o
                0x000000002205d244                efi_con_out
 .data.efi_cout_modes
                0x000000002205d26c       0x24 lib/built-in.o
 .data.efi_mem  0x000000002205d290        0x8 lib/built-in.o
                0x000000002205d290                efi_mem
 .data.sha256_padding
                0x000000002205d298       0x40 lib/built-in.o
 .data.first_call.8618
                0x000000002205d2d8        0x4 net/built-in.o
 .data.net_native_vlan
                0x000000002205d2dc        0x2 net/built-in.o
                0x000000002205d2dc                net_native_vlan
 .data.net_our_vlan
                0x000000002205d2de        0x2 net/built-in.o
                0x000000002205d2de                net_our_vlan
 .data.nfs_offset
                0x000000002205d2e0        0x4 net/built-in.o
 .data.supported_nfs_versions
                0x000000002205d2e4        0x1 net/built-in.o
 *fill*         0x000000002205d2e5        0x1 
 .data.tftp_block_size
                0x000000002205d2e6        0x2 net/built-in.o
 .data.tftp_block_size_option
                0x000000002205d2e8        0x2 net/built-in.o
 *fill*         0x000000002205d2ea        0x2 
 .data.tftp_timeout_count_max
                0x000000002205d2ec        0x4 net/built-in.o
                0x000000002205d2ec                tftp_timeout_count_max
 .data.timeout_count_max
                0x000000002205d2f0        0x4 net/built-in.o
 .data.timeout_ms
                0x000000002205d2f4        0x4 net/built-in.o
 .data.test_commands
                0x000000002205d2f8       0x54 test/dm/built-in.o

.got            0x000000002205d34c        0x0
 .got           0x000000002205d34c        0x0 arch/arm/cpu/armv7/start.o

.got.plt        0x000000002205d34c        0xc
 .got.plt       0x000000002205d34c        0xc arch/arm/cpu/armv7/start.o
                0x000000002205d34c                _GLOBAL_OFFSET_TABLE_

.igot.plt       0x000000002205d358        0x0
 .igot.plt      0x000000002205d358        0x0 arch/arm/cpu/armv7/start.o
                0x000000002205d358                . = ALIGN (0x4)
                0x000000002205d358                . = .
                0x000000002205d358                . = ALIGN (0x4)

.u_boot_list    0x000000002205d358     0x1af8
 *(SORT_BY_NAME(.u_boot_list*))
 .u_boot_list_2_cmd_1
                0x000000002205d358        0x0 cmd/built-in.o
 .u_boot_list_2_cmd_1
                0x000000002205d358        0x0 common/built-in.o
 .u_boot_list_2_cmd_2_base
                0x000000002205d358       0x1c cmd/built-in.o
                0x000000002205d358                _u_boot_list_2_cmd_2_base
 .u_boot_list_2_cmd_2_bdinfo
                0x000000002205d374       0x1c cmd/built-in.o
                0x000000002205d374                _u_boot_list_2_cmd_2_bdinfo
 .u_boot_list_2_cmd_2_blkcache
                0x000000002205d390       0x1c cmd/built-in.o
                0x000000002205d390                _u_boot_list_2_cmd_2_blkcache
 .u_boot_list_2_cmd_2_boot
                0x000000002205d3ac       0x1c cmd/built-in.o
                0x000000002205d3ac                _u_boot_list_2_cmd_2_boot
 .u_boot_list_2_cmd_2_bootd
                0x000000002205d3c8       0x1c cmd/built-in.o
                0x000000002205d3c8                _u_boot_list_2_cmd_2_bootd
 .u_boot_list_2_cmd_2_bootefi
                0x000000002205d3e4       0x1c cmd/built-in.o
                0x000000002205d3e4                _u_boot_list_2_cmd_2_bootefi
 .u_boot_list_2_cmd_2_bootelf
                0x000000002205d400       0x1c cmd/built-in.o
                0x000000002205d400                _u_boot_list_2_cmd_2_bootelf
 .u_boot_list_2_cmd_2_bootm
                0x000000002205d41c       0x1c cmd/built-in.o
                0x000000002205d41c                _u_boot_list_2_cmd_2_bootm
 .u_boot_list_2_cmd_2_bootp
                0x000000002205d438       0x1c cmd/built-in.o
                0x000000002205d438                _u_boot_list_2_cmd_2_bootp
 .u_boot_list_2_cmd_2_bootvx
                0x000000002205d454       0x1c cmd/built-in.o
                0x000000002205d454                _u_boot_list_2_cmd_2_bootvx
 .u_boot_list_2_cmd_2_bootz
                0x000000002205d470       0x1c cmd/built-in.o
                0x000000002205d470                _u_boot_list_2_cmd_2_bootz
 .u_boot_list_2_cmd_2_cmp
                0x000000002205d48c       0x1c cmd/built-in.o
                0x000000002205d48c                _u_boot_list_2_cmd_2_cmp
 .u_boot_list_2_cmd_2_coninfo
                0x000000002205d4a8       0x1c cmd/built-in.o
                0x000000002205d4a8                _u_boot_list_2_cmd_2_coninfo
 .u_boot_list_2_cmd_2_cp
                0x000000002205d4c4       0x1c cmd/built-in.o
                0x000000002205d4c4                _u_boot_list_2_cmd_2_cp
 .u_boot_list_2_cmd_2_crc32
                0x000000002205d4e0       0x1c cmd/built-in.o
                0x000000002205d4e0                _u_boot_list_2_cmd_2_crc32
 .u_boot_list_2_cmd_2_dhcp
                0x000000002205d4fc       0x1c cmd/built-in.o
                0x000000002205d4fc                _u_boot_list_2_cmd_2_dhcp
 .u_boot_list_2_cmd_2_dm
                0x000000002205d518       0x1c test/dm/built-in.o
                0x000000002205d518                _u_boot_list_2_cmd_2_dm
 .u_boot_list_2_cmd_2_echo
                0x000000002205d534       0x1c cmd/built-in.o
                0x000000002205d534                _u_boot_list_2_cmd_2_echo
 .u_boot_list_2_cmd_2_editenv
                0x000000002205d550       0x1c cmd/built-in.o
                0x000000002205d550                _u_boot_list_2_cmd_2_editenv
 .u_boot_list_2_cmd_2_env
                0x000000002205d56c       0x1c cmd/built-in.o
                0x000000002205d56c                _u_boot_list_2_cmd_2_env
 .u_boot_list_2_cmd_2_exit
                0x000000002205d588       0x1c cmd/built-in.o
                0x000000002205d588                _u_boot_list_2_cmd_2_exit
 .u_boot_list_2_cmd_2_ext4load
                0x000000002205d5a4       0x1c cmd/built-in.o
                0x000000002205d5a4                _u_boot_list_2_cmd_2_ext4load
 .u_boot_list_2_cmd_2_ext4ls
                0x000000002205d5c0       0x1c cmd/built-in.o
                0x000000002205d5c0                _u_boot_list_2_cmd_2_ext4ls
 .u_boot_list_2_cmd_2_ext4size
                0x000000002205d5dc       0x1c cmd/built-in.o
                0x000000002205d5dc                _u_boot_list_2_cmd_2_ext4size
 .u_boot_list_2_cmd_2_false
                0x000000002205d5f8       0x1c cmd/built-in.o
                0x000000002205d5f8                _u_boot_list_2_cmd_2_false
 .u_boot_list_2_cmd_2_fatinfo
                0x000000002205d614       0x1c cmd/built-in.o
                0x000000002205d614                _u_boot_list_2_cmd_2_fatinfo
 .u_boot_list_2_cmd_2_fatload
                0x000000002205d630       0x1c cmd/built-in.o
                0x000000002205d630                _u_boot_list_2_cmd_2_fatload
 .u_boot_list_2_cmd_2_fatls
                0x000000002205d64c       0x1c cmd/built-in.o
                0x000000002205d64c                _u_boot_list_2_cmd_2_fatls
 .u_boot_list_2_cmd_2_fatsize
                0x000000002205d668       0x1c cmd/built-in.o
                0x000000002205d668                _u_boot_list_2_cmd_2_fatsize
 .u_boot_list_2_cmd_2_fatwrite
                0x000000002205d684       0x1c cmd/built-in.o
                0x000000002205d684                _u_boot_list_2_cmd_2_fatwrite
 .u_boot_list_2_cmd_2_fdt
                0x000000002205d6a0       0x1c cmd/built-in.o
                0x000000002205d6a0                _u_boot_list_2_cmd_2_fdt
 .u_boot_list_2_cmd_2_go
                0x000000002205d6bc       0x1c cmd/built-in.o
                0x000000002205d6bc                _u_boot_list_2_cmd_2_go
 .u_boot_list_2_cmd_2_help
                0x000000002205d6d8       0x1c cmd/built-in.o
                0x000000002205d6d8                _u_boot_list_2_cmd_2_help
 .u_boot_list_2_cmd_2_i2c
                0x000000002205d6f4       0x1c cmd/built-in.o
                0x000000002205d6f4                _u_boot_list_2_cmd_2_i2c
 .u_boot_list_2_cmd_2_iminfo
                0x000000002205d710       0x1c cmd/built-in.o
                0x000000002205d710                _u_boot_list_2_cmd_2_iminfo
 .u_boot_list_2_cmd_2_imxtract
                0x000000002205d72c       0x1c cmd/built-in.o
                0x000000002205d72c                _u_boot_list_2_cmd_2_imxtract
 .u_boot_list_2_cmd_2_itest
                0x000000002205d748       0x1c cmd/built-in.o
                0x000000002205d748                _u_boot_list_2_cmd_2_itest
 .u_boot_list_2_cmd_2_loadb
                0x000000002205d764       0x1c cmd/built-in.o
                0x000000002205d764                _u_boot_list_2_cmd_2_loadb
 .u_boot_list_2_cmd_2_loadx
                0x000000002205d780       0x1c cmd/built-in.o
                0x000000002205d780                _u_boot_list_2_cmd_2_loadx
 .u_boot_list_2_cmd_2_loady
                0x000000002205d79c       0x1c cmd/built-in.o
                0x000000002205d79c                _u_boot_list_2_cmd_2_loady
 .u_boot_list_2_cmd_2_loop
                0x000000002205d7b8       0x1c cmd/built-in.o
                0x000000002205d7b8                _u_boot_list_2_cmd_2_loop
 .u_boot_list_2_cmd_2_md
                0x000000002205d7d4       0x1c cmd/built-in.o
                0x000000002205d7d4                _u_boot_list_2_cmd_2_md
 .u_boot_list_2_cmd_2_mm
                0x000000002205d7f0       0x1c cmd/built-in.o
                0x000000002205d7f0                _u_boot_list_2_cmd_2_mm
 .u_boot_list_2_cmd_2_mmc
                0x000000002205d80c       0x1c cmd/built-in.o
                0x000000002205d80c                _u_boot_list_2_cmd_2_mmc
 .u_boot_list_2_cmd_2_mmcinfo
                0x000000002205d828       0x1c cmd/built-in.o
                0x000000002205d828                _u_boot_list_2_cmd_2_mmcinfo
 .u_boot_list_2_cmd_2_mw
                0x000000002205d844       0x1c cmd/built-in.o
                0x000000002205d844                _u_boot_list_2_cmd_2_mw
 .u_boot_list_2_cmd_2_nfs
                0x000000002205d860       0x1c cmd/built-in.o
                0x000000002205d860                _u_boot_list_2_cmd_2_nfs
 .u_boot_list_2_cmd_2_nm
                0x000000002205d87c       0x1c cmd/built-in.o
                0x000000002205d87c                _u_boot_list_2_cmd_2_nm
 .u_boot_list_2_cmd_2_ping
                0x000000002205d898       0x1c cmd/built-in.o
                0x000000002205d898                _u_boot_list_2_cmd_2_ping
 .u_boot_list_2_cmd_2_printenv
                0x000000002205d8b4       0x1c cmd/built-in.o
                0x000000002205d8b4                _u_boot_list_2_cmd_2_printenv
 .u_boot_list_2_cmd_2_question_mark
                0x000000002205d8d0       0x1c cmd/built-in.o
                0x000000002205d8d0                _u_boot_list_2_cmd_2_question_mark
 .u_boot_list_2_cmd_2_reset
                0x000000002205d8ec       0x1c cmd/built-in.o
                0x000000002205d8ec                _u_boot_list_2_cmd_2_reset
 .u_boot_list_2_cmd_2_run
                0x000000002205d908       0x1c cmd/built-in.o
                0x000000002205d908                _u_boot_list_2_cmd_2_run
 .u_boot_list_2_cmd_2_saveenv
                0x000000002205d924       0x1c cmd/built-in.o
                0x000000002205d924                _u_boot_list_2_cmd_2_saveenv
 .u_boot_list_2_cmd_2_setenv
                0x000000002205d940       0x1c cmd/built-in.o
                0x000000002205d940                _u_boot_list_2_cmd_2_setenv
 .u_boot_list_2_cmd_2_setexpr
                0x000000002205d95c       0x1c cmd/built-in.o
                0x000000002205d95c                _u_boot_list_2_cmd_2_setexpr
 .u_boot_list_2_cmd_2_sf
                0x000000002205d978       0x1c cmd/built-in.o
                0x000000002205d978                _u_boot_list_2_cmd_2_sf
 .u_boot_list_2_cmd_2_showvar
                0x000000002205d994       0x1c common/built-in.o
                0x000000002205d994                _u_boot_list_2_cmd_2_showvar
 .u_boot_list_2_cmd_2_sleep
                0x000000002205d9b0       0x1c cmd/built-in.o
                0x000000002205d9b0                _u_boot_list_2_cmd_2_sleep
 .u_boot_list_2_cmd_2_source
                0x000000002205d9cc       0x1c cmd/built-in.o
                0x000000002205d9cc                _u_boot_list_2_cmd_2_source
 .u_boot_list_2_cmd_2_test
                0x000000002205d9e8       0x1c cmd/built-in.o
                0x000000002205d9e8                _u_boot_list_2_cmd_2_test
 .u_boot_list_2_cmd_2_tftpboot
                0x000000002205da04       0x1c cmd/built-in.o
                0x000000002205da04                _u_boot_list_2_cmd_2_tftpboot
 .u_boot_list_2_cmd_2_true
                0x000000002205da20       0x1c cmd/built-in.o
                0x000000002205da20                _u_boot_list_2_cmd_2_true
 .u_boot_list_2_cmd_2_usb
                0x000000002205da3c       0x1c cmd/built-in.o
                0x000000002205da3c                _u_boot_list_2_cmd_2_usb
 .u_boot_list_2_cmd_2_usbboot
                0x000000002205da58       0x1c cmd/built-in.o
                0x000000002205da58                _u_boot_list_2_cmd_2_usbboot
 .u_boot_list_2_cmd_2_version
                0x000000002205da74       0x1c cmd/built-in.o
                0x000000002205da74                _u_boot_list_2_cmd_2_version
 .u_boot_list_2_cmd_2_w1
                0x000000002205da90       0x1c cmd/built-in.o
                0x000000002205da90                _u_boot_list_2_cmd_2_w1
 .u_boot_list_2_cmd_3
                0x000000002205daac        0x0 cmd/built-in.o
 .u_boot_list_2_cmd_3
                0x000000002205daac        0x0 common/built-in.o
 .u_boot_list_2_driver_1
                0x000000002205daac        0x0 drivers/built-in.o
 .u_boot_list_2_driver_1
                0x000000002205daac        0x0 lib/built-in.o
 .u_boot_list_2_driver_2_at91_master_clk
                0x000000002205daac       0x44 drivers/built-in.o
                0x000000002205daac                _u_boot_list_2_driver_2_at91_master_clk
 .u_boot_list_2_driver_2_at91_plla_clk
                0x000000002205daf0       0x44 drivers/built-in.o
                0x000000002205daf0                _u_boot_list_2_driver_2_at91_plla_clk
 .u_boot_list_2_driver_2_at91_plladiv_clk
                0x000000002205db34       0x44 drivers/built-in.o
                0x000000002205db34                _u_boot_list_2_driver_2_at91_plladiv_clk
 .u_boot_list_2_driver_2_at91_pmc
                0x000000002205db78       0x44 drivers/built-in.o
                0x000000002205db78                _u_boot_list_2_driver_2_at91_pmc
 .u_boot_list_2_driver_2_at91_sckc
                0x000000002205dbbc       0x44 drivers/built-in.o
                0x000000002205dbbc                _u_boot_list_2_driver_2_at91_sckc
 .u_boot_list_2_driver_2_at91_slow_clk
                0x000000002205dc00       0x44 drivers/built-in.o
                0x000000002205dc00                _u_boot_list_2_driver_2_at91_slow_clk
 .u_boot_list_2_driver_2_at91_system_clk
                0x000000002205dc44       0x44 drivers/built-in.o
                0x000000002205dc44                _u_boot_list_2_driver_2_at91_system_clk
 .u_boot_list_2_driver_2_at91sam9x5_main_osc_clk
                0x000000002205dc88       0x44 drivers/built-in.o
                0x000000002205dc88                _u_boot_list_2_driver_2_at91sam9x5_main_osc_clk
 .u_boot_list_2_driver_2_at91sam9x5_utmi_clk
                0x000000002205dccc       0x44 drivers/built-in.o
                0x000000002205dccc                _u_boot_list_2_driver_2_at91sam9x5_utmi_clk
 .u_boot_list_2_driver_2_atmel_pinctrl
                0x000000002205dd10       0x44 drivers/built-in.o
                0x000000002205dd10                _u_boot_list_2_driver_2_atmel_pinctrl
 .u_boot_list_2_driver_2_atmel_pit
                0x000000002205dd54       0x44 drivers/built-in.o
                0x000000002205dd54                _u_boot_list_2_driver_2_atmel_pit
 .u_boot_list_2_driver_2_atmel_qspi
                0x000000002205dd98       0x44 drivers/spi/built-in.o
                0x000000002205dd98                _u_boot_list_2_driver_2_atmel_qspi
 .u_boot_list_2_driver_2_atmel_sdhci_drv
                0x000000002205dddc       0x44 drivers/built-in.o
                0x000000002205dddc                _u_boot_list_2_driver_2_atmel_sdhci_drv
 .u_boot_list_2_driver_2_atmel_spi
                0x000000002205de20       0x44 drivers/spi/built-in.o
                0x000000002205de20                _u_boot_list_2_driver_2_atmel_spi
 .u_boot_list_2_driver_2_clk_fixed_rate
                0x000000002205de64       0x44 drivers/built-in.o
                0x000000002205de64                _u_boot_list_2_driver_2_clk_fixed_rate
 .u_boot_list_2_driver_2_clk_periph
                0x000000002205dea8       0x44 drivers/built-in.o
                0x000000002205dea8                _u_boot_list_2_driver_2_clk_periph
 .u_boot_list_2_driver_2_ds24xxx
                0x000000002205deec       0x44 drivers/built-in.o
                0x000000002205deec                _u_boot_list_2_driver_2_ds24xxx
 .u_boot_list_2_driver_2_efi_blk
                0x000000002205df30       0x44 lib/built-in.o
                0x000000002205df30                _u_boot_list_2_driver_2_efi_blk
 .u_boot_list_2_driver_2_efi_block
                0x000000002205df74       0x44 lib/built-in.o
                0x000000002205df74                _u_boot_list_2_driver_2_efi_block
 .u_boot_list_2_driver_2_ehci_atmel
                0x000000002205dfb8       0x44 drivers/usb/host/built-in.o
                0x000000002205dfb8                _u_boot_list_2_driver_2_ehci_atmel
 .u_boot_list_2_driver_2_eth_macb
                0x000000002205dffc       0x44 drivers/net/built-in.o
                0x000000002205dffc                _u_boot_list_2_driver_2_eth_macb
 .u_boot_list_2_driver_2_generated_clk
                0x000000002205e040       0x44 drivers/built-in.o
                0x000000002205e040                _u_boot_list_2_driver_2_generated_clk
 .u_boot_list_2_driver_2_generic_clk
                0x000000002205e084       0x44 drivers/built-in.o
                0x000000002205e084                _u_boot_list_2_driver_2_generic_clk
 .u_boot_list_2_driver_2_generic_syscon
                0x000000002205e0c8       0x44 drivers/built-in.o
                0x000000002205e0c8                _u_boot_list_2_driver_2_generic_syscon
 .u_boot_list_2_driver_2_gpio_atmel_pio4
                0x000000002205e10c       0x44 drivers/gpio/built-in.o
                0x000000002205e10c                _u_boot_list_2_driver_2_gpio_atmel_pio4
 .u_boot_list_2_driver_2_i2c_at91
                0x000000002205e150       0x44 drivers/i2c/built-in.o
                0x000000002205e150                _u_boot_list_2_driver_2_i2c_at91
 .u_boot_list_2_driver_2_i2c_eeprom_std
                0x000000002205e194       0x44 drivers/built-in.o
                0x000000002205e194                _u_boot_list_2_driver_2_i2c_eeprom_std
 .u_boot_list_2_driver_2_i2c_generic_chip_drv
                0x000000002205e1d8       0x44 drivers/i2c/built-in.o
                0x000000002205e1d8                _u_boot_list_2_driver_2_i2c_generic_chip_drv
 .u_boot_list_2_driver_2_mmc
                0x000000002205e21c       0x44 drivers/built-in.o
                0x000000002205e21c                _u_boot_list_2_driver_2_mmc
 .u_boot_list_2_driver_2_mmc_blk
                0x000000002205e260       0x44 drivers/built-in.o
                0x000000002205e260                _u_boot_list_2_driver_2_mmc_blk
 .u_boot_list_2_driver_2_pinconfig_generic
                0x000000002205e2a4       0x44 drivers/built-in.o
                0x000000002205e2a4                _u_boot_list_2_driver_2_pinconfig_generic
 .u_boot_list_2_driver_2_root_driver
                0x000000002205e2e8       0x44 drivers/built-in.o
                0x000000002205e2e8                _u_boot_list_2_driver_2_root_driver
 .u_boot_list_2_driver_2_sam9x5_periph_clk
                0x000000002205e32c       0x44 drivers/built-in.o
                0x000000002205e32c                _u_boot_list_2_driver_2_sam9x5_periph_clk
 .u_boot_list_2_driver_2_sama5d4_h32mx_clk
                0x000000002205e370       0x44 drivers/built-in.o
                0x000000002205e370                _u_boot_list_2_driver_2_sama5d4_h32mx_clk
 .u_boot_list_2_driver_2_serial_atmel
                0x000000002205e3b4       0x44 drivers/serial/built-in.o
                0x000000002205e3b4                _u_boot_list_2_driver_2_serial_atmel
 .u_boot_list_2_driver_2_simple_bus_drv
                0x000000002205e3f8       0x44 drivers/built-in.o
                0x000000002205e3f8                _u_boot_list_2_driver_2_simple_bus_drv
 .u_boot_list_2_driver_2_spi_flash_std
                0x000000002205e43c       0x44 drivers/mtd/spi/built-in.o
                0x000000002205e43c                _u_boot_list_2_driver_2_spi_flash_std
 .u_boot_list_2_driver_2_spi_generic_drv
                0x000000002205e480       0x44 drivers/spi/built-in.o
                0x000000002205e480                _u_boot_list_2_driver_2_spi_generic_drv
 .u_boot_list_2_driver_2_system_clk
                0x000000002205e4c4       0x44 drivers/built-in.o
                0x000000002205e4c4                _u_boot_list_2_driver_2_system_clk
 .u_boot_list_2_driver_2_usb_dev_generic_drv
                0x000000002205e508       0x44 drivers/usb/host/built-in.o
                0x000000002205e508                _u_boot_list_2_driver_2_usb_dev_generic_drv
 .u_boot_list_2_driver_2_usb_generic_hub
                0x000000002205e54c       0x44 common/built-in.o
                0x000000002205e54c                _u_boot_list_2_driver_2_usb_generic_hub
 .u_boot_list_2_driver_2_usb_mass_storage
                0x000000002205e590       0x44 common/built-in.o
                0x000000002205e590                _u_boot_list_2_driver_2_usb_mass_storage
 .u_boot_list_2_driver_2_usb_storage_blk
                0x000000002205e5d4       0x44 common/built-in.o
                0x000000002205e5d4                _u_boot_list_2_driver_2_usb_storage_blk
 .u_boot_list_2_driver_2_w1_gpio_drv
                0x000000002205e618       0x44 drivers/built-in.o
                0x000000002205e618                _u_boot_list_2_driver_2_w1_gpio_drv
 .u_boot_list_2_driver_3
                0x000000002205e65c        0x0 drivers/built-in.o
 .u_boot_list_2_driver_3
                0x000000002205e65c        0x0 lib/built-in.o
 .u_boot_list_2_driver_info_1
                0x000000002205e65c        0x0 drivers/built-in.o
 .u_boot_list_2_driver_info_3
                0x000000002205e65c        0x0 drivers/built-in.o
 .u_boot_list_2_env_clbk_1
                0x000000002205e65c        0x0 env/built-in.o
 .u_boot_list_2_env_clbk_2_baudrate
                0x000000002205e65c        0x8 drivers/serial/built-in.o
                0x000000002205e65c                _u_boot_list_2_env_clbk_2_baudrate
 .u_boot_list_2_env_clbk_2_bootfile
                0x000000002205e664        0x8 net/built-in.o
                0x000000002205e664                _u_boot_list_2_env_clbk_2_bootfile
 .u_boot_list_2_env_clbk_2_callbacks
                0x000000002205e66c        0x8 env/built-in.o
                0x000000002205e66c                _u_boot_list_2_env_clbk_2_callbacks
 .u_boot_list_2_env_clbk_2_console
                0x000000002205e674        0x8 common/built-in.o
                0x000000002205e674                _u_boot_list_2_env_clbk_2_console
 .u_boot_list_2_env_clbk_2_ethaddr
                0x000000002205e67c        0x8 net/built-in.o
                0x000000002205e67c                _u_boot_list_2_env_clbk_2_ethaddr
 .u_boot_list_2_env_clbk_2_flags
                0x000000002205e684        0x8 env/built-in.o
                0x000000002205e684                _u_boot_list_2_env_clbk_2_flags
 .u_boot_list_2_env_clbk_2_gatewayip
                0x000000002205e68c        0x8 net/built-in.o
                0x000000002205e68c                _u_boot_list_2_env_clbk_2_gatewayip
 .u_boot_list_2_env_clbk_2_ipaddr
                0x000000002205e694        0x8 net/built-in.o
                0x000000002205e694                _u_boot_list_2_env_clbk_2_ipaddr
 .u_boot_list_2_env_clbk_2_loadaddr
                0x000000002205e69c        0x8 common/built-in.o
                0x000000002205e69c                _u_boot_list_2_env_clbk_2_loadaddr
 .u_boot_list_2_env_clbk_2_netmask
                0x000000002205e6a4        0x8 net/built-in.o
                0x000000002205e6a4                _u_boot_list_2_env_clbk_2_netmask
 .u_boot_list_2_env_clbk_2_nvlan
                0x000000002205e6ac        0x8 net/built-in.o
                0x000000002205e6ac                _u_boot_list_2_env_clbk_2_nvlan
 .u_boot_list_2_env_clbk_2_serverip
                0x000000002205e6b4        0x8 net/built-in.o
                0x000000002205e6b4                _u_boot_list_2_env_clbk_2_serverip
 .u_boot_list_2_env_clbk_2_vlan
                0x000000002205e6bc        0x8 net/built-in.o
                0x000000002205e6bc                _u_boot_list_2_env_clbk_2_vlan
 .u_boot_list_2_env_clbk_3
                0x000000002205e6c4        0x0 env/built-in.o
 .u_boot_list_2_env_driver_1
                0x000000002205e6c4        0x0 env/built-in.o
 .u_boot_list_2_env_driver_2_fat
                0x000000002205e6c4       0x14 env/built-in.o
                0x000000002205e6c4                _u_boot_list_2_env_driver_2_fat
 .u_boot_list_2_env_driver_3
                0x000000002205e6d8        0x0 env/built-in.o
 .u_boot_list_2_fit_loadable_1
                0x000000002205e6d8        0x0 common/built-in.o
 .u_boot_list_2_fit_loadable_3
                0x000000002205e6d8        0x0 common/built-in.o
 .u_boot_list_2_part_driver_1
                0x000000002205e6d8        0x0 disk/built-in.o
 .u_boot_list_2_part_driver_2_dos
                0x000000002205e6d8       0x18 disk/built-in.o
                0x000000002205e6d8                _u_boot_list_2_part_driver_2_dos
 .u_boot_list_2_part_driver_3
                0x000000002205e6f0        0x0 disk/built-in.o
 .u_boot_list_2_uclass_1
                0x000000002205e6f0        0x0 drivers/built-in.o
 .u_boot_list_2_uclass_2_blk
                0x000000002205e6f0       0x48 drivers/built-in.o
                0x000000002205e6f0                _u_boot_list_2_uclass_2_blk
 .u_boot_list_2_uclass_2_clk
                0x000000002205e738       0x48 drivers/built-in.o
                0x000000002205e738                _u_boot_list_2_uclass_2_clk
 .u_boot_list_2_uclass_2_efi
                0x000000002205e780       0x48 lib/built-in.o
                0x000000002205e780                _u_boot_list_2_uclass_2_efi
 .u_boot_list_2_uclass_2_eth
                0x000000002205e7c8       0x48 net/built-in.o
                0x000000002205e7c8                _u_boot_list_2_uclass_2_eth
 .u_boot_list_2_uclass_2_gpio
                0x000000002205e810       0x48 drivers/gpio/built-in.o
                0x000000002205e810                _u_boot_list_2_uclass_2_gpio
 .u_boot_list_2_uclass_2_i2c
                0x000000002205e858       0x48 drivers/i2c/built-in.o
                0x000000002205e858                _u_boot_list_2_uclass_2_i2c
 .u_boot_list_2_uclass_2_i2c_eeprom
                0x000000002205e8a0       0x48 drivers/built-in.o
                0x000000002205e8a0                _u_boot_list_2_uclass_2_i2c_eeprom
 .u_boot_list_2_uclass_2_i2c_generic
                0x000000002205e8e8       0x48 drivers/i2c/built-in.o
                0x000000002205e8e8                _u_boot_list_2_uclass_2_i2c_generic
 .u_boot_list_2_uclass_2_misc
                0x000000002205e930       0x48 drivers/built-in.o
                0x000000002205e930                _u_boot_list_2_uclass_2_misc
 .u_boot_list_2_uclass_2_mmc
                0x000000002205e978       0x48 drivers/built-in.o
                0x000000002205e978                _u_boot_list_2_uclass_2_mmc
 .u_boot_list_2_uclass_2_pinconfig
                0x000000002205e9c0       0x48 drivers/built-in.o
                0x000000002205e9c0                _u_boot_list_2_uclass_2_pinconfig
 .u_boot_list_2_uclass_2_pinctrl
                0x000000002205ea08       0x48 drivers/built-in.o
                0x000000002205ea08                _u_boot_list_2_uclass_2_pinctrl
 .u_boot_list_2_uclass_2_root
                0x000000002205ea50       0x48 drivers/built-in.o
                0x000000002205ea50                _u_boot_list_2_uclass_2_root
 .u_boot_list_2_uclass_2_serial
                0x000000002205ea98       0x48 drivers/serial/built-in.o
                0x000000002205ea98                _u_boot_list_2_uclass_2_serial
 .u_boot_list_2_uclass_2_simple_bus
                0x000000002205eae0       0x48 drivers/built-in.o
                0x000000002205eae0                _u_boot_list_2_uclass_2_simple_bus
 .u_boot_list_2_uclass_2_spi
                0x000000002205eb28       0x48 drivers/spi/built-in.o
                0x000000002205eb28                _u_boot_list_2_uclass_2_spi
 .u_boot_list_2_uclass_2_spi_flash
                0x000000002205eb70       0x48 drivers/mtd/spi/built-in.o
                0x000000002205eb70                _u_boot_list_2_uclass_2_spi_flash
 .u_boot_list_2_uclass_2_spi_generic
                0x000000002205ebb8       0x48 drivers/spi/built-in.o
                0x000000002205ebb8                _u_boot_list_2_uclass_2_spi_generic
 .u_boot_list_2_uclass_2_syscon
                0x000000002205ec00       0x48 drivers/built-in.o
                0x000000002205ec00                _u_boot_list_2_uclass_2_syscon
 .u_boot_list_2_uclass_2_timer
                0x000000002205ec48       0x48 drivers/built-in.o
                0x000000002205ec48                _u_boot_list_2_uclass_2_timer
 .u_boot_list_2_uclass_2_usb
                0x000000002205ec90       0x48 drivers/usb/host/built-in.o
                0x000000002205ec90                _u_boot_list_2_uclass_2_usb
 .u_boot_list_2_uclass_2_usb_dev_generic
                0x000000002205ecd8       0x48 drivers/usb/host/built-in.o
                0x000000002205ecd8                _u_boot_list_2_uclass_2_usb_dev_generic
 .u_boot_list_2_uclass_2_usb_hub
                0x000000002205ed20       0x48 common/built-in.o
                0x000000002205ed20                _u_boot_list_2_uclass_2_usb_hub
 .u_boot_list_2_uclass_2_usb_mass_storage
                0x000000002205ed68       0x48 common/built-in.o
                0x000000002205ed68                _u_boot_list_2_uclass_2_usb_mass_storage
 .u_boot_list_2_uclass_2_w1
                0x000000002205edb0       0x48 drivers/built-in.o
                0x000000002205edb0                _u_boot_list_2_uclass_2_w1
 .u_boot_list_2_uclass_2_w1_eeprom
                0x000000002205edf8       0x48 drivers/built-in.o
                0x000000002205edf8                _u_boot_list_2_uclass_2_w1_eeprom
 .u_boot_list_2_uclass_3
                0x000000002205ee40        0x0 drivers/built-in.o
 .u_boot_list_2_usb_driver_entry_1
                0x000000002205ee40        0x0 drivers/usb/host/built-in.o
 .u_boot_list_2_usb_driver_entry_2_usb_generic_hub
                0x000000002205ee40        0x8 common/built-in.o
                0x000000002205ee40                _u_boot_list_2_usb_driver_entry_2_usb_generic_hub
 .u_boot_list_2_usb_driver_entry_2_usb_mass_storage
                0x000000002205ee48        0x8 common/built-in.o
                0x000000002205ee48                _u_boot_list_2_usb_driver_entry_2_usb_mass_storage
 .u_boot_list_2_usb_driver_entry_3
                0x000000002205ee50        0x0 drivers/usb/host/built-in.o
                0x000000002205ee50                . = ALIGN (0x4)

.__efi_runtime_start
                0x000000002205ee50        0x0
 *(.__efi_runtime_start)
 .__efi_runtime_start
                0x000000002205ee50        0x0 arch/arm/lib/built-in.o

.efi_runtime    0x000000002205ee50      0x230
 *(efi_runtime_text)
 efi_runtime_text
                0x000000002205ee50       0x3c lib/built-in.o
                0x000000002205ee50                efi_reset_system
                0x000000002205ee54                efi_get_time
                0x000000002205ee74                efi_update_capsule
                0x000000002205ee7c                efi_query_capsule_caps
                0x000000002205ee84                efi_query_variable_info
 *(efi_runtime_data)
 *fill*         0x000000002205ee8c        0x4 
 efi_runtime_data
                0x000000002205ee90      0x1f0 lib/built-in.o
                0x000000002205ee90                systab
                0x000000002205f030                efi_runtime_services

.__efi_runtime_stop
                0x000000002205f080        0x0
 *(.__efi_runtime_stop)
 .__efi_runtime_stop
                0x000000002205f080        0x0 arch/arm/lib/built-in.o

.efi_runtime_rel_start
                0x000000002205f080        0x0
 *(.__efi_runtime_rel_start)
 .__efi_runtime_rel_start
                0x000000002205f080        0x0 arch/arm/lib/built-in.o

.efi_runtime_rel
                0x000000002205f080       0xa8
 *(.relefi_runtime_text)
 *(.relefi_runtime_data)
 .relefi_runtime_data
                0x000000002205f080       0xa8 arch/arm/cpu/armv7/start.o

.efi_runtime_rel_stop
                0x000000002205f128        0x0
 *(.__efi_runtime_rel_stop)
 .__efi_runtime_rel_stop
                0x000000002205f128        0x0 arch/arm/lib/built-in.o
                0x000000002205f128                . = ALIGN (0x4)

.image_copy_end
                0x000000002205f128        0x0
 *(.__image_copy_end)
 .__image_copy_end
                0x000000002205f128        0x0 arch/arm/lib/built-in.o

.rel_dyn_start  0x000000002205f128        0x0
 *(.__rel_dyn_start)
 .__rel_dyn_start
                0x000000002205f128        0x0 arch/arm/lib/built-in.o

.rel.dyn        0x000000002205f128     0x9ca0
 *(.rel*)
 .rel.got       0x000000002205f128        0x0 arch/arm/cpu/armv7/start.o
 .rel.plt       0x000000002205f128        0x0 arch/arm/cpu/armv7/start.o
 .rel.bss       0x000000002205f128        0x0 arch/arm/cpu/armv7/start.o
 .rel.data.rel.ro
                0x000000002205f128        0x0 arch/arm/cpu/armv7/start.o
 .rel.iplt      0x000000002205f128        0x0 arch/arm/cpu/armv7/start.o
 .rel.text      0x000000002205f128       0x20 arch/arm/cpu/armv7/start.o
 .rel.vectors   0x000000002205f148       0x38 arch/arm/cpu/armv7/start.o
 .rel.text.relocate_vectors
                0x000000002205f180       0x20 arch/arm/cpu/armv7/start.o
 .rel.text.boot_prep_linux
                0x000000002205f1a0       0x18 arch/arm/cpu/armv7/start.o
 .rel.text.boot_jump_linux
                0x000000002205f1b8       0x28 arch/arm/cpu/armv7/start.o
 .rel.text.boot_prep_vxworks
                0x000000002205f1e0       0x10 arch/arm/cpu/armv7/start.o
 .rel.text.interrupt_init
                0x000000002205f1f0        0x8 arch/arm/cpu/armv7/start.o
 .rel.text.bad_mode
                0x000000002205f1f8        0x8 arch/arm/cpu/armv7/start.o
 .rel.text.show_regs
                0x000000002205f200       0x80 arch/arm/cpu/armv7/start.o
 .rel.text.do_undefined_instruction
                0x000000002205f280        0x8 arch/arm/cpu/armv7/start.o
 .rel.text.do_software_interrupt
                0x000000002205f288        0x8 arch/arm/cpu/armv7/start.o
 .rel.text.do_prefetch_abort
                0x000000002205f290        0x8 arch/arm/cpu/armv7/start.o
 .rel.text.do_data_abort
                0x000000002205f298        0x8 arch/arm/cpu/armv7/start.o
 .rel.text.do_not_used
                0x000000002205f2a0        0x8 arch/arm/cpu/armv7/start.o
 .rel.text.do_fiq
                0x000000002205f2a8        0x8 arch/arm/cpu/armv7/start.o
 .rel.text.do_irq
                0x000000002205f2b0        0x8 arch/arm/cpu/armv7/start.o
 .rel.text.do_reset
                0x000000002205f2b8        0x8 arch/arm/cpu/armv7/start.o
 .rel.text.check_cache_range
                0x000000002205f2c0        0x8 arch/arm/cpu/armv7/start.o
 .rel.rodata    0x000000002205f2c8      0x100 arch/arm/cpu/armv7/start.o
 .rel.text.get_cpu_name
                0x000000002205f3c8       0x80 arch/arm/cpu/armv7/start.o
 .rel.text.print_cpuinfo
                0x000000002205f448       0x20 arch/arm/cpu/armv7/start.o
 .rel.text.at91_pda_detect
                0x000000002205f468       0x28 arch/arm/cpu/armv7/start.o
 .rel.text.at91_set_ethaddr
                0x000000002205f490        0x8 arch/arm/cpu/armv7/start.o
 .rel.text.do_go
                0x000000002205f498       0x10 arch/arm/cpu/armv7/start.o
 .rel.text.do_bootm
                0x000000002205f4a8       0x18 arch/arm/cpu/armv7/start.o
 .rel.text.do_bootd
                0x000000002205f4c0        0x8 arch/arm/cpu/armv7/start.o
 .rel.text.image_info
                0x000000002205f4c8       0x58 arch/arm/cpu/armv7/start.o
 .rel.text.do_iminfo
                0x000000002205f520        0x8 arch/arm/cpu/armv7/start.o
 .rel.text.bootm_maybe_autostart
                0x000000002205f528       0x20 arch/arm/cpu/armv7/start.o
 .rel.text.do_help
                0x000000002205f548       0x10 arch/arm/cpu/armv7/start.o
 .rel.text.do_version
                0x000000002205f558       0x10 arch/arm/cpu/armv7/start.o
 .rel.text.blk_common_cmd
                0x000000002205f568       0x90 arch/arm/cpu/armv7/start.o
 .rel.text.source
                0x000000002205f5f8       0x68 arch/arm/cpu/armv7/start.o
 .rel.text.do_source
                0x000000002205f660       0x10 arch/arm/cpu/armv7/start.o
 .rel.text.print_num
                0x000000002205f670        0x8 arch/arm/cpu/armv7/start.o
 .rel.text.do_bdinfo
                0x000000002205f678       0x68 arch/arm/cpu/armv7/start.o
 .rel.text.do_blkcache
                0x000000002205f6e0        0x8 arch/arm/cpu/armv7/start.o
 .rel.text.blkc_configure
                0x000000002205f6e8        0x8 arch/arm/cpu/armv7/start.o
 .rel.text.blkc_show
                0x000000002205f6f0        0x8 arch/arm/cpu/armv7/start.o
 .rel.text.efi_install_fdt
                0x000000002205f6f8       0x20 arch/arm/cpu/armv7/start.o
 .rel.text.do_bootefi_exec
                0x000000002205f718       0x38 arch/arm/cpu/armv7/start.o
 .rel.text.efi_init_obj_list
                0x000000002205f750        0x8 arch/arm/cpu/armv7/start.o
 .rel.text.do_bootefi
                0x000000002205f758       0x50 arch/arm/cpu/armv7/start.o
 .rel.text.efi_set_bootdev
                0x000000002205f7a8       0x28 arch/arm/cpu/armv7/start.o
 .rel.text.do_bootz
                0x000000002205f7d0       0x18 arch/arm/cpu/armv7/start.o
 .rel.text.do_coninfo
                0x000000002205f7e8       0x28 arch/arm/cpu/armv7/start.o
 .rel.text.do_echo
                0x000000002205f810        0x8 arch/arm/cpu/armv7/start.o
 .rel.text.valid_elf_image
                0x000000002205f818       0x10 arch/arm/cpu/armv7/start.o
 .rel.text.do_bootelf
                0x000000002205f828       0x28 arch/arm/cpu/armv7/start.o
 .rel.text.do_bootvx
                0x000000002205f850       0xe0 arch/arm/cpu/armv7/start.o
 .rel.text.do_fat_fswrite
                0x000000002205f930       0x18 arch/arm/cpu/armv7/start.o
 .rel.text.do_fat_fsinfo
                0x000000002205f948       0x10 arch/arm/cpu/armv7/start.o
 .rel.text.fdt_valid
                0x000000002205f958       0x28 arch/arm/cpu/armv7/start.o
 .rel.text.is_printable_string
                0x000000002205f980        0x8 arch/arm/cpu/armv7/start.o
 .rel.text.print_data
                0x000000002205f988       0x58 arch/arm/cpu/armv7/start.o
 .rel.text.set_working_fdt_addr
                0x000000002205f9e0       0x10 arch/arm/cpu/armv7/start.o
 .rel.text.do_fdt
                0x000000002205f9f0      0x260 arch/arm/cpu/armv7/start.o
 .rel.text.do_i2c
                0x000000002205fc50        0x8 arch/arm/cpu/armv7/start.o
 .rel.text.i2c_get_cur_bus
                0x000000002205fc58       0x10 arch/arm/cpu/armv7/start.o
 .rel.text.do_i2c_bus_speed
                0x000000002205fc68       0x18 arch/arm/cpu/armv7/start.o
 .rel.text.do_i2c_reset
                0x000000002205fc80        0x8 arch/arm/cpu/armv7/start.o
 .rel.text.do_i2c_olen
                0x000000002205fc88       0x18 arch/arm/cpu/armv7/start.o
 .rel.text.do_i2c_flags
                0x000000002205fca0       0x18 arch/arm/cpu/armv7/start.o
 .rel.text.do_i2c_probe
                0x000000002205fcb8       0x10 arch/arm/cpu/armv7/start.o
 .rel.text.do_i2c_bus_num
                0x000000002205fcc8       0x20 arch/arm/cpu/armv7/start.o
 .rel.text.show_bus
                0x000000002205fce8       0x20 arch/arm/cpu/armv7/start.o
 .rel.text.do_i2c_show_bus
                0x000000002205fd08        0x8 arch/arm/cpu/armv7/start.o
 .rel.text.do_i2c_crc
                0x000000002205fd10       0x20 arch/arm/cpu/armv7/start.o
 .rel.text.mod_i2c_mem.isra.1
                0x000000002205fd30       0x60 arch/arm/cpu/armv7/start.o
 .rel.text.do_i2c_md
                0x000000002205fd90       0x58 arch/arm/cpu/armv7/start.o
 .rel.text.do_i2c_read
                0x000000002205fde8       0x10 arch/arm/cpu/armv7/start.o
 .rel.text.do_i2c_mw
                0x000000002205fdf8       0x10 arch/arm/cpu/armv7/start.o
 .rel.text.do_i2c_write
                0x000000002205fe08       0x18 arch/arm/cpu/armv7/start.o
 .rel.text.do_i2c_loop
                0x000000002205fe20       0x18 arch/arm/cpu/armv7/start.o
 .rel.text.binary_test
                0x000000002205fe38       0x70 arch/arm/cpu/armv7/start.o
 .rel.text.do_itest
                0x000000002205fea8       0x40 arch/arm/cpu/armv7/start.o
 .rel.text.bin_data_init
                0x000000002205fee8       0x18 arch/arm/cpu/armv7/start.o
 .rel.text.k_data_save
                0x000000002205ff00       0x30 arch/arm/cpu/armv7/start.o
 .rel.text.k_data_restore
                0x000000002205ff30       0x30 arch/arm/cpu/armv7/start.o
 .rel.text.load_serial_ymodem
                0x000000002205ff60       0x20 arch/arm/cpu/armv7/start.o
 .rel.text.bin_data_char
                0x000000002205ff80       0x10 arch/arm/cpu/armv7/start.o
 .rel.text.chk1.constprop.2
                0x000000002205ff90        0x8 arch/arm/cpu/armv7/start.o
 .rel.text.s1_sendpacket.constprop.3
                0x000000002205ff98       0x18 arch/arm/cpu/armv7/start.o
 .rel.text.do_load_serial_bin
                0x000000002205ffb0       0xe8 arch/arm/cpu/armv7/start.o
 .rel.text.do_mem_mw
                0x0000000022060098        0x8 arch/arm/cpu/armv7/start.o
 .rel.text.do_mem_md
                0x00000000220600a0       0x20 arch/arm/cpu/armv7/start.o
 .rel.text.do_mem_cmp
                0x00000000220600c0       0x38 arch/arm/cpu/armv7/start.o
 .rel.text.do_mem_base
                0x00000000220600f8       0x10 arch/arm/cpu/armv7/start.o
 .rel.text.do_mem_cp
                0x0000000022060108       0x10 arch/arm/cpu/armv7/start.o
 .rel.text.do_mem_crc
                0x0000000022060118        0x8 arch/arm/cpu/armv7/start.o
 .rel.text.mod_mem.isra.0
                0x0000000022060120       0x48 arch/arm/cpu/armv7/start.o
 .rel.text.do_mmcops
                0x0000000022060168       0x18 arch/arm/cpu/armv7/start.o
 .rel.text.init_mmc_device
                0x0000000022060180        0x8 arch/arm/cpu/armv7/start.o
 .rel.text.do_mmc_rescan
                0x0000000022060188        0x8 arch/arm/cpu/armv7/start.o
 .rel.text.do_mmc_hwpartition
                0x0000000022060190       0xb0 arch/arm/cpu/armv7/start.o
 .rel.text.do_mmc_dev
                0x0000000022060240       0x38 arch/arm/cpu/armv7/start.o
 .rel.text.do_mmc_erase
                0x0000000022060278       0x30 arch/arm/cpu/armv7/start.o
 .rel.text.do_mmc_write
                0x00000000220602a8       0x30 arch/arm/cpu/armv7/start.o
 .rel.text.do_mmc_read
                0x00000000220602d8       0x28 arch/arm/cpu/armv7/start.o
 .rel.text.do_mmcinfo
                0x0000000022060300      0x110 arch/arm/cpu/armv7/start.o
 .rel.text.do_mmc_setdsr
                0x0000000022060410       0x28 arch/arm/cpu/armv7/start.o
 .rel.text.do_mmc_part
                0x0000000022060438       0x10 arch/arm/cpu/armv7/start.o
 .rel.text.netboot_common
                0x0000000022060448       0xa0 arch/arm/cpu/armv7/start.o
 .rel.text.do_ping
                0x00000000220604e8       0x18 arch/arm/cpu/armv7/start.o
 .rel.text.do_spi_flash
                0x0000000022060500       0xd8 arch/arm/cpu/armv7/start.o
 .rel.text.substitute
                0x00000000220605d8        0x8 arch/arm/cpu/armv7/start.o
 .rel.text.regex_sub.part.1
                0x00000000220605e0       0x38 arch/arm/cpu/armv7/start.o
 .rel.text.do_setexpr
                0x0000000022060618       0x18 arch/arm/cpu/armv7/start.o
 .rel.text.do_test
                0x0000000022060630       0x70 arch/arm/cpu/armv7/start.o
 .rel.text.usb_get_class_desc
                0x00000000220606a0       0x50 arch/arm/cpu/armv7/start.o
 .rel.text.usb_display_class_sub
                0x00000000220606f0       0xc8 arch/arm/cpu/armv7/start.o
 .rel.text.usb_display_desc
                0x00000000220607b8       0x38 arch/arm/cpu/armv7/start.o
 .rel.text.usb_show_tree_graph
                0x00000000220607f0       0x48 arch/arm/cpu/armv7/start.o
 .rel.text.usb_display_string
                0x0000000022060838        0x8 arch/arm/cpu/armv7/start.o
 .rel.text.usb_display_config
                0x0000000022060840       0xa8 arch/arm/cpu/armv7/start.o
 .rel.text.do_usbboot
                0x00000000220608e8        0x8 arch/arm/cpu/armv7/start.o
 .rel.text.do_usb_start
                0x00000000220608f0        0x8 arch/arm/cpu/armv7/start.o
 .rel.text.usb_show_tree
                0x00000000220608f8        0x8 arch/arm/cpu/armv7/start.o
 .rel.text.do_usb
                0x0000000022060900       0xf0 arch/arm/cpu/armv7/start.o
 .rel.text.common_diskboot
                0x00000000220609f0       0x38 arch/arm/cpu/armv7/start.o
 .rel.text.do_imgextract
                0x0000000022060a28       0xc8 arch/arm/cpu/armv7/start.o
 .rel.text.w1_read
                0x0000000022060af0       0x40 arch/arm/cpu/armv7/start.o
 .rel.text.do_w1
                0x0000000022060b30       0x48 arch/arm/cpu/armv7/start.o
 .rel.text.do_env_delete
                0x0000000022060b78       0x10 arch/arm/cpu/armv7/start.o
 .rel.text.do_env_exists
                0x0000000022060b88        0x8 arch/arm/cpu/armv7/start.o
 .rel.text.do_env
                0x0000000022060b90        0x8 arch/arm/cpu/armv7/start.o
 .rel.text.env_print
                0x0000000022060b98       0x18 arch/arm/cpu/armv7/start.o
 .rel.text.do_env_print
                0x0000000022060bb0       0x10 arch/arm/cpu/armv7/start.o
 .rel.text.do_env_import
                0x0000000022060bc0       0x48 arch/arm/cpu/armv7/start.o
 .rel.text.do_env_default
                0x0000000022060c08        0x8 arch/arm/cpu/armv7/start.o
 .rel.text._do_env_set.isra.0
                0x0000000022060c10       0x30 arch/arm/cpu/armv7/start.o
 .rel.text.get_env_id
                0x0000000022060c40        0x8 arch/arm/cpu/armv7/start.o
 .rel.text.env_set
                0x0000000022060c48        0x8 arch/arm/cpu/armv7/start.o
 .rel.text.env_set_hex
                0x0000000022060c50        0x8 arch/arm/cpu/armv7/start.o
 .rel.text.do_env_export
                0x0000000022060c58       0x30 arch/arm/cpu/armv7/start.o
 .rel.text.env_get_f
                0x0000000022060c88        0x8 arch/arm/cpu/armv7/start.o
 .rel.text.env_get
                0x0000000022060c90        0x8 arch/arm/cpu/armv7/start.o
 .rel.text.eth_env_set_enetaddr
                0x0000000022060c98        0x8 arch/arm/cpu/armv7/start.o
 .rel.text.do_env_edit.part.3
                0x0000000022060ca0       0x18 arch/arm/cpu/armv7/start.o
 .rel.rodata.op_table
                0x0000000022060cb8       0x68 arch/arm/cpu/armv7/start.o
 .rel.rodata.op_adv
                0x0000000022060d20       0x80 arch/arm/cpu/armv7/start.o
 .rel.rodata.CSWTCH.45
                0x0000000022060da0       0x28 arch/arm/cpu/armv7/start.o
 .rel.u_boot_list_2_cmd_2_go
                0x0000000022060dc8       0x20 arch/arm/cpu/armv7/start.o
 .rel.u_boot_list_2_cmd_2_reset
                0x0000000022060de8       0x20 arch/arm/cpu/armv7/start.o
 .rel.data.cmd_bootm_sub
                0x0000000022060e08       0xd8 arch/arm/cpu/armv7/start.o
 .rel.u_boot_list_2_cmd_2_boot
                0x0000000022060ee0       0x20 arch/arm/cpu/armv7/start.o
 .rel.u_boot_list_2_cmd_2_bootd
                0x0000000022060f00       0x20 arch/arm/cpu/armv7/start.o
 .rel.u_boot_list_2_cmd_2_bootm
                0x0000000022060f20       0x20 arch/arm/cpu/armv7/start.o
 .rel.u_boot_list_2_cmd_2_iminfo
                0x0000000022060f40       0x20 arch/arm/cpu/armv7/start.o
 .rel.u_boot_list_2_cmd_2_help
                0x0000000022060f60       0x20 arch/arm/cpu/armv7/start.o
 .rel.u_boot_list_2_cmd_2_question_mark
                0x0000000022060f80       0x20 arch/arm/cpu/armv7/start.o
 .rel.u_boot_list_2_cmd_2_version
                0x0000000022060fa0       0x20 arch/arm/cpu/armv7/start.o
 .rel.u_boot_list_2_cmd_2_source
                0x0000000022060fc0       0x20 arch/arm/cpu/armv7/start.o
 .rel.u_boot_list_2_cmd_2_bdinfo
                0x0000000022060fe0       0x20 arch/arm/cpu/armv7/start.o
 .rel.data.cmd_blkc_sub
                0x0000000022061000       0x40 arch/arm/cpu/armv7/start.o
 .rel.u_boot_list_2_cmd_2_blkcache
                0x0000000022061040       0x20 arch/arm/cpu/armv7/start.o
 .rel.u_boot_list_2_cmd_2_bootefi
                0x0000000022061060       0x20 arch/arm/cpu/armv7/start.o
 .rel.u_boot_list_2_cmd_2_bootz
                0x0000000022061080       0x20 arch/arm/cpu/armv7/start.o
 .rel.u_boot_list_2_cmd_2_coninfo
                0x00000000220610a0       0x20 arch/arm/cpu/armv7/start.o
 .rel.u_boot_list_2_cmd_2_echo
                0x00000000220610c0       0x20 arch/arm/cpu/armv7/start.o
 .rel.u_boot_list_2_cmd_2_bootelf
                0x00000000220610e0       0x20 arch/arm/cpu/armv7/start.o
 .rel.u_boot_list_2_cmd_2_bootvx
                0x0000000022061100       0x20 arch/arm/cpu/armv7/start.o
 .rel.u_boot_list_2_cmd_2_exit
                0x0000000022061120       0x20 arch/arm/cpu/armv7/start.o
 .rel.u_boot_list_2_cmd_2_ext4load
                0x0000000022061140       0x20 arch/arm/cpu/armv7/start.o
 .rel.u_boot_list_2_cmd_2_ext4ls
                0x0000000022061160       0x20 arch/arm/cpu/armv7/start.o
 .rel.u_boot_list_2_cmd_2_ext4size
                0x0000000022061180       0x20 arch/arm/cpu/armv7/start.o
 .rel.u_boot_list_2_cmd_2_fatinfo
                0x00000000220611a0       0x20 arch/arm/cpu/armv7/start.o
 .rel.u_boot_list_2_cmd_2_fatload
                0x00000000220611c0       0x20 arch/arm/cpu/armv7/start.o
 .rel.u_boot_list_2_cmd_2_fatls
                0x00000000220611e0       0x20 arch/arm/cpu/armv7/start.o
 .rel.u_boot_list_2_cmd_2_fatsize
                0x0000000022061200       0x20 arch/arm/cpu/armv7/start.o
 .rel.u_boot_list_2_cmd_2_fatwrite
                0x0000000022061220       0x20 arch/arm/cpu/armv7/start.o
 .rel.u_boot_list_2_cmd_2_fdt
                0x0000000022061240       0x20 arch/arm/cpu/armv7/start.o
 .rel.data.cmd_i2c_sub
                0x0000000022061260      0x1e0 arch/arm/cpu/armv7/start.o
 .rel.u_boot_list_2_cmd_2_i2c
                0x0000000022061440       0x20 arch/arm/cpu/armv7/start.o
 .rel.u_boot_list_2_cmd_2_itest
                0x0000000022061460       0x20 arch/arm/cpu/armv7/start.o
 .rel.u_boot_list_2_cmd_2_loadb
                0x0000000022061480       0x20 arch/arm/cpu/armv7/start.o
 .rel.u_boot_list_2_cmd_2_loadx
                0x00000000220614a0       0x20 arch/arm/cpu/armv7/start.o
 .rel.u_boot_list_2_cmd_2_loady
                0x00000000220614c0       0x20 arch/arm/cpu/armv7/start.o
 .rel.u_boot_list_2_cmd_2_base
                0x00000000220614e0       0x20 arch/arm/cpu/armv7/start.o
 .rel.u_boot_list_2_cmd_2_cmp
                0x0000000022061500       0x20 arch/arm/cpu/armv7/start.o
 .rel.u_boot_list_2_cmd_2_cp
                0x0000000022061520       0x20 arch/arm/cpu/armv7/start.o
 .rel.u_boot_list_2_cmd_2_crc32
                0x0000000022061540       0x20 arch/arm/cpu/armv7/start.o
 .rel.u_boot_list_2_cmd_2_loop
                0x0000000022061560       0x20 arch/arm/cpu/armv7/start.o
 .rel.u_boot_list_2_cmd_2_md
                0x0000000022061580       0x20 arch/arm/cpu/armv7/start.o
 .rel.u_boot_list_2_cmd_2_mm
                0x00000000220615a0       0x20 arch/arm/cpu/armv7/start.o
 .rel.u_boot_list_2_cmd_2_mw
                0x00000000220615c0       0x20 arch/arm/cpu/armv7/start.o
 .rel.u_boot_list_2_cmd_2_nm
                0x00000000220615e0       0x20 arch/arm/cpu/armv7/start.o
 .rel.u_boot_list_2_cmd_2_sleep
                0x0000000022061600       0x20 arch/arm/cpu/armv7/start.o
 .rel.data.cmd_mmc
                0x0000000022061620      0x140 arch/arm/cpu/armv7/start.o
 .rel.u_boot_list_2_cmd_2_mmc
                0x0000000022061760       0x20 arch/arm/cpu/armv7/start.o
 .rel.u_boot_list_2_cmd_2_mmcinfo
                0x0000000022061780       0x20 arch/arm/cpu/armv7/start.o
 .rel.u_boot_list_2_cmd_2_bootp
                0x00000000220617a0       0x20 arch/arm/cpu/armv7/start.o
 .rel.u_boot_list_2_cmd_2_dhcp
                0x00000000220617c0       0x20 arch/arm/cpu/armv7/start.o
 .rel.u_boot_list_2_cmd_2_nfs
                0x00000000220617e0       0x20 arch/arm/cpu/armv7/start.o
 .rel.u_boot_list_2_cmd_2_ping
                0x0000000022061800       0x20 arch/arm/cpu/armv7/start.o
 .rel.u_boot_list_2_cmd_2_tftpboot
                0x0000000022061820       0x20 arch/arm/cpu/armv7/start.o
 .rel.u_boot_list_2_cmd_2_sf
                0x0000000022061840       0x20 arch/arm/cpu/armv7/start.o
 .rel.u_boot_list_2_cmd_2_setexpr
                0x0000000022061860       0x20 arch/arm/cpu/armv7/start.o
 .rel.u_boot_list_2_cmd_2_false
                0x0000000022061880       0x18 arch/arm/cpu/armv7/start.o
 .rel.u_boot_list_2_cmd_2_test
                0x0000000022061898       0x20 arch/arm/cpu/armv7/start.o
 .rel.u_boot_list_2_cmd_2_true
                0x00000000220618b8       0x18 arch/arm/cpu/armv7/start.o
 .rel.u_boot_list_2_cmd_2_usb
                0x00000000220618d0       0x20 arch/arm/cpu/armv7/start.o
 .rel.u_boot_list_2_cmd_2_usbboot
                0x00000000220618f0       0x20 arch/arm/cpu/armv7/start.o
 .rel.u_boot_list_2_cmd_2_imxtract
                0x0000000022061910       0x20 arch/arm/cpu/armv7/start.o
 .rel.u_boot_list_2_cmd_2_w1
                0x0000000022061930       0x20 arch/arm/cpu/armv7/start.o
 .rel.data.cmd_env_sub
                0x0000000022061950      0x140 arch/arm/cpu/armv7/start.o
 .rel.u_boot_list_2_cmd_2_editenv
                0x0000000022061a90       0x28 arch/arm/cpu/armv7/start.o
 .rel.u_boot_list_2_cmd_2_env
                0x0000000022061ab8       0x20 arch/arm/cpu/armv7/start.o
 .rel.u_boot_list_2_cmd_2_printenv
                0x0000000022061ad8       0x28 arch/arm/cpu/armv7/start.o
 .rel.u_boot_list_2_cmd_2_run
                0x0000000022061b00       0x28 arch/arm/cpu/armv7/start.o
 .rel.u_boot_list_2_cmd_2_saveenv
                0x0000000022061b28       0x20 arch/arm/cpu/armv7/start.o
 .rel.u_boot_list_2_cmd_2_setenv
                0x0000000022061b48       0x28 arch/arm/cpu/armv7/start.o
 .rel.text.main_loop
                0x0000000022061b70        0x8 arch/arm/cpu/armv7/start.o
 .rel.text.jumptable_init
                0x0000000022061b78       0xc0 arch/arm/cpu/armv7/start.o
 .rel.text.hash_lookup_algo
                0x0000000022061c38        0x8 arch/arm/cpu/armv7/start.o
 .rel.text.hash_command
                0x0000000022061c40       0x28 arch/arm/cpu/armv7/start.o
 .rel.text.mapset
                0x0000000022061c68        0x8 arch/arm/cpu/armv7/start.o
 .rel.text.syntax_err
                0x0000000022061c70        0x8 arch/arm/cpu/armv7/start.o
 .rel.text.xmalloc
                0x0000000022061c78        0x8 arch/arm/cpu/armv7/start.o
 .rel.text.xrealloc
                0x0000000022061c80        0x8 arch/arm/cpu/armv7/start.o
 .rel.text.done_word
                0x0000000022061c88        0x8 arch/arm/cpu/armv7/start.o
 .rel.text.is_assignment
                0x0000000022061c90        0x8 arch/arm/cpu/armv7/start.o
 .rel.text.file_get
                0x0000000022061c98       0x30 arch/arm/cpu/armv7/start.o
 .rel.text.do_showvar
                0x0000000022061cc8       0x20 arch/arm/cpu/armv7/start.o
 .rel.text.b_addqchr
                0x0000000022061ce8        0x8 arch/arm/cpu/armv7/start.o
 .rel.text.get_local_var
                0x0000000022061cf0       0x20 arch/arm/cpu/armv7/start.o
 .rel.text.set_local_var
                0x0000000022061d10       0x20 arch/arm/cpu/armv7/start.o
 .rel.text.insert_var_value_sub
                0x0000000022061d30        0x8 arch/arm/cpu/armv7/start.o
 .rel.text.parse_string_outer
                0x0000000022061d38       0x18 arch/arm/cpu/armv7/start.o
 .rel.text.run_list_real
                0x0000000022061d50       0x40 arch/arm/cpu/armv7/start.o
 .rel.text.parse_stream_outer
                0x0000000022061d90       0x68 arch/arm/cpu/armv7/start.o
 .rel.text.parse_file_outer
                0x0000000022061df8       0x10 arch/arm/cpu/armv7/start.o
 .rel.text.u_boot_hush_start
                0x0000000022061e08       0x18 arch/arm/cpu/armv7/start.o
 .rel.text.bootdelay_process
                0x0000000022061e20       0x38 arch/arm/cpu/armv7/start.o
 .rel.text.autoboot_command
                0x0000000022061e58       0x20 arch/arm/cpu/armv7/start.o
 .rel.text.setup_mon_len
                0x0000000022061e78       0x10 arch/arm/cpu/armv7/start.o
 .rel.text.announce_dram_init
                0x0000000022061e88        0x8 arch/arm/cpu/armv7/start.o
 .rel.text.init_baud_rate
                0x0000000022061e90        0x8 arch/arm/cpu/armv7/start.o
 .rel.text.show_dram_config
                0x0000000022061e98        0x8 arch/arm/cpu/armv7/start.o
 .rel.text.board_init_f
                0x0000000022061ea0        0x8 arch/arm/cpu/armv7/start.o
 .rel.text.initr_net
                0x0000000022061ea8        0x8 arch/arm/cpu/armv7/start.o
 .rel.text.initr_ethaddr
                0x0000000022061eb0        0x8 arch/arm/cpu/armv7/start.o
 .rel.text.initr_env
                0x0000000022061eb8       0x20 arch/arm/cpu/armv7/start.o
 .rel.text.initr_mmc
                0x0000000022061ed8        0x8 arch/arm/cpu/armv7/start.o
 .rel.text.initr_reloc_global_data
                0x0000000022061ee0       0x18 arch/arm/cpu/armv7/start.o
 .rel.text.board_init_r
                0x0000000022061ef8        0x8 arch/arm/cpu/armv7/start.o
 .rel.text.bootm_find_images
                0x0000000022061f00       0x20 arch/arm/cpu/armv7/start.o
 .rel.text.bootm_decomp_image
                0x0000000022061f20       0x48 arch/arm/cpu/armv7/start.o
 .rel.text.do_bootm_states
                0x0000000022061f68       0xf0 arch/arm/cpu/armv7/start.o
 .rel.text.do_bootm_rtems
                0x0000000022062058        0x8 arch/arm/cpu/armv7/start.o
 .rel.text.do_bootm_plan9
                0x0000000022062060       0x18 arch/arm/cpu/armv7/start.o
 .rel.text.do_bootm_standalone
                0x0000000022062078       0x18 arch/arm/cpu/armv7/start.o
 .rel.text.do_bootm_qnxelf
                0x0000000022062090        0x8 arch/arm/cpu/armv7/start.o
 .rel.text.do_bootm_netbsd
                0x0000000022062098       0x18 arch/arm/cpu/armv7/start.o
 .rel.text.do_bootvx_fdt
                0x00000000220620b0       0x38 arch/arm/cpu/armv7/start.o
 .rel.text.bootm_os_get_boot_func
                0x00000000220620e8        0x8 arch/arm/cpu/armv7/start.o
 .rel.text.fdt_support_default_count_cells
                0x00000000220620f0        0x8 arch/arm/cpu/armv7/start.o
 .rel.text.fdt_find_or_add_subnode
                0x00000000220620f8       0x10 arch/arm/cpu/armv7/start.o
 .rel.text.fdt_root
                0x0000000022062108       0x20 arch/arm/cpu/armv7/start.o
 .rel.text.fdt_initrd
                0x0000000022062128       0x30 arch/arm/cpu/armv7/start.o
 .rel.text.fdt_chosen
                0x0000000022062158       0x20 arch/arm/cpu/armv7/start.o
 .rel.text.do_fixup_by_path
                0x0000000022062178        0x8 arch/arm/cpu/armv7/start.o
 .rel.text.fdt_fixup_memory_banks
                0x0000000022062180       0x38 arch/arm/cpu/armv7/start.o
 .rel.text.fdt_fixup_ethernet
                0x00000000220621b8       0x30 arch/arm/cpu/armv7/start.o
 .rel.text.fdt_translate_address
                0x00000000220621e8       0x20 arch/arm/cpu/armv7/start.o
 .rel.text.fdt_overlay_apply_verbose
                0x0000000022062208       0x20 arch/arm/cpu/armv7/start.o
 .rel.text.miiphy_get_dev_by_name
                0x0000000022062228       0x10 arch/arm/cpu/armv7/start.o
 .rel.text.miiphy_init
                0x0000000022062238       0x10 arch/arm/cpu/armv7/start.o
 .rel.text.mdio_register
                0x0000000022062248       0x18 arch/arm/cpu/armv7/start.o
 .rel.text.mdio_unregister
                0x0000000022062260        0x8 arch/arm/cpu/armv7/start.o
 .rel.text.get_descriptor_len
                0x0000000022062268       0x10 arch/arm/cpu/armv7/start.o
 .rel.text.usb_setup_descriptor
                0x0000000022062278       0x10 arch/arm/cpu/armv7/start.o
 .rel.text.usb_string_sub
                0x0000000022062288        0x8 arch/arm/cpu/armv7/start.o
 .rel.text.usb_get_configuration_len
                0x0000000022062290       0x10 arch/arm/cpu/armv7/start.o
 .rel.text.usb_set_interface
                0x00000000220622a0        0x8 arch/arm/cpu/armv7/start.o
 .rel.text.usb_select_config
                0x00000000220622a8       0x70 arch/arm/cpu/armv7/start.o
 .rel.text.usb_setup_device
                0x0000000022062318       0x10 arch/arm/cpu/armv7/start.o
 .rel.text.usb_find_usb2_hub_address_port
                0x0000000022062328        0x8 arch/arm/cpu/armv7/start.o
 .rel.text.usb_hub_port_connect_change
                0x0000000022062330        0x8 arch/arm/cpu/armv7/start.o
 .rel.text.usb_hub_configure
                0x0000000022062338       0x28 arch/arm/cpu/armv7/start.o
 .rel.text.usb_stor_BBB_transport
                0x0000000022062360       0x10 arch/arm/cpu/armv7/start.o
 .rel.text.usb_stor_CB_comdat
                0x0000000022062370        0x8 arch/arm/cpu/armv7/start.o
 .rel.text.usb_stor_CBI_get_status.isra.2
                0x0000000022062378        0x8 arch/arm/cpu/armv7/start.o
 .rel.text.usb_stor_CB_transport
                0x0000000022062380       0x10 arch/arm/cpu/armv7/start.o
 .rel.text.usb_request_sense.constprop.11
                0x0000000022062390        0x8 arch/arm/cpu/armv7/start.o
 .rel.text.usb_stor_read
                0x0000000022062398        0x8 arch/arm/cpu/armv7/start.o
 .rel.text.usb_stor_write
                0x00000000220623a0        0x8 arch/arm/cpu/armv7/start.o
 .rel.text.usb_stor_info
                0x00000000220623a8       0x10 arch/arm/cpu/armv7/start.o
 .rel.text.usb_stor_reset
                0x00000000220623b8        0x8 arch/arm/cpu/armv7/start.o
 .rel.text.usb_stor_scan
                0x00000000220623c0       0x18 arch/arm/cpu/armv7/start.o
 .rel.text.usb_storage_probe
                0x00000000220623d8       0x38 arch/arm/cpu/armv7/start.o
 .rel.text.usb_stor_get_info
                0x0000000022062410       0x20 arch/arm/cpu/armv7/start.o
 .rel.text.usb_mass_storage_probe
                0x0000000022062430       0x18 arch/arm/cpu/armv7/start.o
 .rel.text.delete_char.part.0
                0x0000000022062448       0x10 arch/arm/cpu/armv7/start.o
 .rel.text.cread_add_char
                0x0000000022062458        0x8 arch/arm/cpu/armv7/start.o
 .rel.text.cli_readline_into_buffer
                0x0000000022062460      0x178 arch/arm/cpu/armv7/start.o
 .rel.text.cli_readline
                0x00000000220625d8        0x8 arch/arm/cpu/armv7/start.o
 .rel.text.console_setfile
                0x00000000220625e0       0x30 arch/arm/cpu/armv7/start.o
 .rel.text.fgetc
                0x0000000022062610        0x8 arch/arm/cpu/armv7/start.o
 .rel.text.ftstc
                0x0000000022062618        0x8 arch/arm/cpu/armv7/start.o
 .rel.text.fputc
                0x0000000022062620        0x8 arch/arm/cpu/armv7/start.o
 .rel.text.fputs
                0x0000000022062628        0x8 arch/arm/cpu/armv7/start.o
 .rel.text.ctrlc
                0x0000000022062630       0x10 arch/arm/cpu/armv7/start.o
 .rel.text.disable_ctrlc
                0x0000000022062640        0x8 arch/arm/cpu/armv7/start.o
 .rel.text.had_ctrlc
                0x0000000022062648        0x8 arch/arm/cpu/armv7/start.o
 .rel.text.clear_ctrlc
                0x0000000022062650        0x8 arch/arm/cpu/armv7/start.o
 .rel.text.on_console
                0x0000000022062658       0x20 arch/arm/cpu/armv7/start.o
 .rel.text.stdio_print_current_devices
                0x0000000022062678       0x40 arch/arm/cpu/armv7/start.o
 .rel.text.console_init_r
                0x00000000220626b8       0x10 arch/arm/cpu/armv7/start.o
 .rel.text.sbrk
                0x00000000220626c8       0x18 arch/arm/cpu/armv7/start.o
 .rel.text.mem_malloc_init
                0x00000000220626e0       0x18 arch/arm/cpu/armv7/start.o
 .rel.text.malloc_trim
                0x00000000220626f8       0x18 arch/arm/cpu/armv7/start.o
 .rel.text.free
                0x0000000022062710       0x20 arch/arm/cpu/armv7/start.o
 .rel.text.malloc
                0x0000000022062730       0x48 arch/arm/cpu/armv7/start.o
 .rel.text.calloc
                0x0000000022062778        0x8 arch/arm/cpu/armv7/start.o
 .rel.text.realloc
                0x0000000022062780       0x10 arch/arm/cpu/armv7/start.o
 .rel.text.on_loadaddr
                0x0000000022062790        0x8 arch/arm/cpu/armv7/start.o
 .rel.text.env_get_bootm_low
                0x0000000022062798        0x8 arch/arm/cpu/armv7/start.o
 .rel.text.env_get_bootm_size
                0x00000000220627a0       0x10 arch/arm/cpu/armv7/start.o
 .rel.text.env_get_bootm_mapsize
                0x00000000220627b0        0x8 arch/arm/cpu/armv7/start.o
 .rel.text.genimg_print_size
                0x00000000220627b8       0x10 arch/arm/cpu/armv7/start.o
 .rel.text.genimg_get_os_name
                0x00000000220627c8       0x10 arch/arm/cpu/armv7/start.o
 .rel.text.genimg_get_arch_name
                0x00000000220627d8       0x10 arch/arm/cpu/armv7/start.o
 .rel.text.genimg_get_type_name
                0x00000000220627e8       0x10 arch/arm/cpu/armv7/start.o
 .rel.text.genimg_get_comp_name
                0x00000000220627f8       0x10 arch/arm/cpu/armv7/start.o
 .rel.text.image_print_contents
                0x0000000022062808       0x58 arch/arm/cpu/armv7/start.o
 .rel.text.genimg_get_os_id
                0x0000000022062860       0x10 arch/arm/cpu/armv7/start.o
 .rel.text.genimg_get_arch_id
                0x0000000022062870       0x10 arch/arm/cpu/armv7/start.o
 .rel.text.genimg_get_type_id
                0x0000000022062880       0x10 arch/arm/cpu/armv7/start.o
 .rel.text.genimg_get_comp_id
                0x0000000022062890       0x10 arch/arm/cpu/armv7/start.o
 .rel.text.genimg_get_kernel_addr_fit
                0x00000000220628a0        0x8 arch/arm/cpu/armv7/start.o
 .rel.text.boot_get_ramdisk
                0x00000000220628a8       0x60 arch/arm/cpu/armv7/start.o
 .rel.text.boot_ramdisk_high
                0x0000000022062908       0x20 arch/arm/cpu/armv7/start.o
 .rel.text.boot_get_loadable
                0x0000000022062928       0x20 arch/arm/cpu/armv7/start.o
 .rel.text.fdt_error
                0x0000000022062948       0x10 arch/arm/cpu/armv7/start.o
 .rel.text.boot_fdt_add_mem_rsv_regions
                0x0000000022062958        0x8 arch/arm/cpu/armv7/start.o
 .rel.text.boot_relocate_fdt
                0x0000000022062960       0x40 arch/arm/cpu/armv7/start.o
 .rel.text.boot_get_fdt
                0x00000000220629a0       0x90 arch/arm/cpu/armv7/start.o
 .rel.text.image_setup_libfdt
                0x0000000022062a30       0x20 arch/arm/cpu/armv7/start.o
 .rel.text.fit_image_get_address
                0x0000000022062a50        0x8 arch/arm/cpu/armv7/start.o
 .rel.text.fit_get_desc
                0x0000000022062a58        0x8 arch/arm/cpu/armv7/start.o
 .rel.text.fit_image_get_node
                0x0000000022062a60        0x8 arch/arm/cpu/armv7/start.o
 .rel.text.fit_image_get_os
                0x0000000022062a68        0x8 arch/arm/cpu/armv7/start.o
 .rel.text.fit_image_get_arch
                0x0000000022062a70        0x8 arch/arm/cpu/armv7/start.o
 .rel.text.fit_image_get_type
                0x0000000022062a78        0x8 arch/arm/cpu/armv7/start.o
 .rel.text.fit_image_get_comp
                0x0000000022062a80        0x8 arch/arm/cpu/armv7/start.o
 .rel.text.fit_image_get_load
                0x0000000022062a88        0x8 arch/arm/cpu/armv7/start.o
 .rel.text.fit_image_get_entry
                0x0000000022062a90        0x8 arch/arm/cpu/armv7/start.o
 .rel.text.fit_image_get_data
                0x0000000022062a98        0x8 arch/arm/cpu/armv7/start.o
 .rel.text.fit_image_get_data_offset
                0x0000000022062aa0        0x8 arch/arm/cpu/armv7/start.o
 .rel.text.fit_image_get_data_position
                0x0000000022062aa8        0x8 arch/arm/cpu/armv7/start.o
 .rel.text.fit_image_get_data_size
                0x0000000022062ab0        0x8 arch/arm/cpu/armv7/start.o
 .rel.text.fit_image_hash_get_algo
                0x0000000022062ab8        0x8 arch/arm/cpu/armv7/start.o
 .rel.text.fit_image_hash_get_value
                0x0000000022062ac0        0x8 arch/arm/cpu/armv7/start.o
 .rel.text.fit_image_print_data
                0x0000000022062ac8       0x58 arch/arm/cpu/armv7/start.o
 .rel.text.fit_image_print_verification_data
                0x0000000022062b20       0x20 arch/arm/cpu/armv7/start.o
 .rel.text.fit_image_print
                0x0000000022062b40       0x68 arch/arm/cpu/armv7/start.o
 .rel.text.fit_print_contents
                0x0000000022062ba8       0xc8 arch/arm/cpu/armv7/start.o
 .rel.text.calculate_hash
                0x0000000022062c70       0x20 arch/arm/cpu/armv7/start.o
 .rel.text.fit_image_verify_with_data
                0x0000000022062c90       0x60 arch/arm/cpu/armv7/start.o
 .rel.text.fit_image_verify
                0x0000000022062cf0       0x10 arch/arm/cpu/armv7/start.o
 .rel.text.fit_all_image_verify
                0x0000000022062d00       0x28 arch/arm/cpu/armv7/start.o
 .rel.text.fit_check_format
                0x0000000022062d28       0x10 arch/arm/cpu/armv7/start.o
 .rel.text.fit_conf_get_node
                0x0000000022062d38       0x10 arch/arm/cpu/armv7/start.o
 .rel.text.fit_image_load
                0x0000000022062d48       0xa0 arch/arm/cpu/armv7/start.o
 .rel.text.boot_get_setup_fit
                0x0000000022062de8        0x8 arch/arm/cpu/armv7/start.o
 .rel.text.boot_get_fdt_fit
                0x0000000022062df0       0x20 arch/arm/cpu/armv7/start.o
 .rel.text.stdio_get_list
                0x0000000022062e10        0x8 arch/arm/cpu/armv7/start.o
 .rel.text.stdio_get_by_name
                0x0000000022062e18        0x8 arch/arm/cpu/armv7/start.o
 .rel.text.stdio_register_dev
                0x0000000022062e20        0x8 arch/arm/cpu/armv7/start.o
 .rel.text.stdio_init_tables
                0x0000000022062e28        0x8 arch/arm/cpu/armv7/start.o
 .rel.text.stdio_add_devices
                0x0000000022062e30       0x28 arch/arm/cpu/armv7/start.o
 .rel.text.do_run
                0x0000000022062e58        0x8 arch/arm/cpu/armv7/start.o
 .rel.text.cli_process_fdt
                0x0000000022062e60       0x10 arch/arm/cpu/armv7/start.o
 .rel.text.cli_secure_boot_cmd
                0x0000000022062e70       0x18 arch/arm/cpu/armv7/start.o
 .rel.text.find_cmd
                0x0000000022062e88       0x10 arch/arm/cpu/armv7/start.o
 .rel.text.cmd_usage
                0x0000000022062e98       0x18 arch/arm/cpu/armv7/start.o
 .rel.text._do_help
                0x0000000022062eb0       0x10 arch/arm/cpu/armv7/start.o
 .rel.text.var_complete
                0x0000000022062ec0       0x10 arch/arm/cpu/armv7/start.o
 .rel.text.cmd_auto_complete
                0x0000000022062ed0       0x48 arch/arm/cpu/armv7/start.o
 .rel.text.cmd_get_data_size
                0x0000000022062f18        0x8 arch/arm/cpu/armv7/start.o
 .rel.text.cmd_process
                0x0000000022062f20       0x18 arch/arm/cpu/armv7/start.o
 .rel.text.cmd_process_error
                0x0000000022062f38        0x8 arch/arm/cpu/armv7/start.o
 .rel.text.xyzModem_get_hdr
                0x0000000022062f40       0x30 arch/arm/cpu/armv7/start.o
 .rel.text.xyzModem_stream_open
                0x0000000022062f70       0x10 arch/arm/cpu/armv7/start.o
 .rel.text.xyzModem_stream_read
                0x0000000022062f80        0x8 arch/arm/cpu/armv7/start.o
 .rel.text.xyzModem_stream_close
                0x0000000022062f88       0x20 arch/arm/cpu/armv7/start.o
 .rel.text.xyzModem_stream_terminate
                0x0000000022062fa8        0x8 arch/arm/cpu/armv7/start.o
 .rel.text.xyzModem_error
                0x0000000022062fb0       0x10 arch/arm/cpu/armv7/start.o
 .rel.rodata.init_sequence_f
                0x0000000022062fc0      0x148 arch/arm/cpu/armv7/start.o
 .rel.rodata.boot_os
                0x0000000022063108       0x38 arch/arm/cpu/armv7/start.o
 .rel.rodata.usb_hub_ids
                0x0000000022063140        0x8 arch/arm/cpu/armv7/start.o
 .rel.rodata.usb_mass_storage_ids
                0x0000000022063148        0x8 arch/arm/cpu/armv7/start.o
 .rel.rodata.usb_storage_ops
                0x0000000022063150       0x10 arch/arm/cpu/armv7/start.o
 .rel.rodata.uimage_arch
                0x0000000022063160      0x1b0 arch/arm/cpu/armv7/start.o
 .rel.rodata.uimage_comp
                0x0000000022063310       0x70 arch/arm/cpu/armv7/start.o
 .rel.rodata.uimage_os
                0x0000000022063380       0xc0 arch/arm/cpu/armv7/start.o
 .rel.rodata.uimage_type
                0x0000000022063440      0x240 arch/arm/cpu/armv7/start.o
 .rel.rodata.CSWTCH.184
                0x0000000022063680       0xe8 arch/arm/cpu/armv7/start.o
 .rel.rodata.CSWTCH.32
                0x0000000022063768       0x40 arch/arm/cpu/armv7/start.o
 .rel.data.hash_algo
                0x00000000220637a8       0x78 arch/arm/cpu/armv7/start.o
 .rel.data.reserved_list
                0x0000000022063820       0x58 arch/arm/cpu/armv7/start.o
 .rel.u_boot_list_2_cmd_2_showvar
                0x0000000022063878       0x20 arch/arm/cpu/armv7/start.o
 .rel.data.init_sequence_r
                0x0000000022063898       0xf0 arch/arm/cpu/armv7/start.o
 .rel.data.of_busses
                0x0000000022063988       0x28 arch/arm/cpu/armv7/start.o
 .rel.data.usb_scan_list
                0x00000000220639b0       0x10 arch/arm/cpu/armv7/start.o
 .rel.u_boot_list_2_driver_2_usb_generic_hub
                0x00000000220639c0       0x10 arch/arm/cpu/armv7/start.o
 .rel.u_boot_list_2_uclass_2_usb_hub
                0x00000000220639d0       0x20 arch/arm/cpu/armv7/start.o
 .rel.u_boot_list_2_usb_driver_entry_2_usb_generic_hub
                0x00000000220639f0       0x10 arch/arm/cpu/armv7/start.o
 .rel.u_boot_list_2_driver_2_usb_mass_storage
                0x0000000022063a00       0x18 arch/arm/cpu/armv7/start.o
 .rel.u_boot_list_2_driver_2_usb_storage_blk
                0x0000000022063a18       0x10 arch/arm/cpu/armv7/start.o
 .rel.u_boot_list_2_uclass_2_usb_mass_storage
                0x0000000022063a28        0x8 arch/arm/cpu/armv7/start.o
 .rel.u_boot_list_2_usb_driver_entry_2_usb_mass_storage
                0x0000000022063a30       0x10 arch/arm/cpu/armv7/start.o
 .rel.u_boot_list_2_env_clbk_2_console
                0x0000000022063a40       0x10 arch/arm/cpu/armv7/start.o
 .rel.data.av_  0x0000000022063a50      0x800 arch/arm/cpu/armv7/start.o
 .rel.u_boot_list_2_env_clbk_2_loadaddr
                0x0000000022064250       0x10 arch/arm/cpu/armv7/start.o
 .rel.data.stdio_names
                0x0000000022064260       0x18 arch/arm/cpu/armv7/start.o
 .rel.text.part_driver_lookup_type
                0x0000000022064278       0x10 arch/arm/cpu/armv7/start.o
 .rel.text.dev_print
                0x0000000022064288      0x120 arch/arm/cpu/armv7/start.o
 .rel.text.part_init
                0x00000000220643a8       0x10 arch/arm/cpu/armv7/start.o
 .rel.text.part_print
                0x00000000220643b8       0xb8 arch/arm/cpu/armv7/start.o
 .rel.text.part_get_info_whole_disk
                0x0000000022064470       0x10 arch/arm/cpu/armv7/start.o
 .rel.text.blk_get_device_by_str
                0x0000000022064480       0x18 arch/arm/cpu/armv7/start.o
 .rel.text.blk_get_device_part_str
                0x0000000022064498       0x58 arch/arm/cpu/armv7/start.o
 .rel.text.part_set_generic_name
                0x00000000220644f0       0x18 arch/arm/cpu/armv7/start.o
 .rel.text.test_block_type
                0x0000000022064508       0x10 arch/arm/cpu/armv7/start.o
 .rel.text.print_partition_extended
                0x0000000022064518       0x30 arch/arm/cpu/armv7/start.o
 .rel.text.part_print_dos
                0x0000000022064548        0x8 arch/arm/cpu/armv7/start.o
 .rel.text.part_get_info_extended.constprop.1
                0x0000000022064550       0x18 arch/arm/cpu/armv7/start.o
 .rel.rodata.CSWTCH.37
                0x0000000022064568       0x40 arch/arm/cpu/armv7/start.o
 .rel.u_boot_list_2_part_driver_2_dos
                0x00000000220645a8       0x20 arch/arm/cpu/armv7/start.o
 .rel.text.clk_get_by_indexed_prop.isra.1
                0x00000000220645c8        0x8 arch/arm/cpu/armv7/start.o
 .rel.text.clk_get_by_index
                0x00000000220645d0        0x8 arch/arm/cpu/armv7/start.o
 .rel.text.clk_set_defaults
                0x00000000220645d8       0x20 arch/arm/cpu/armv7/start.o
 .rel.text.clk_fixed_rate_ofdata_to_platdata
                0x00000000220645f8        0x8 arch/arm/cpu/armv7/start.o
 .rel.text.at91_clk_sub_device_bind
                0x0000000022064600        0x8 arch/arm/cpu/armv7/start.o
 .rel.text.at91_clk_of_xlate
                0x0000000022064608        0x8 arch/arm/cpu/armv7/start.o
 .rel.text.at91_system_clk_bind
                0x0000000022064610        0x8 arch/arm/cpu/armv7/start.o
 .rel.text.sam9x5_periph_clk_bind
                0x0000000022064618        0x8 arch/arm/cpu/armv7/start.o
 .rel.text.utmi_clk_enable
                0x0000000022064620       0x10 arch/arm/cpu/armv7/start.o
 .rel.text.utmi_clk_ofdata_to_platdata
                0x0000000022064630        0x8 arch/arm/cpu/armv7/start.o
 .rel.text.generated_clk_bind
                0x0000000022064638        0x8 arch/arm/cpu/armv7/start.o
 .rel.text.generic_clk_ofdata_to_platdata
                0x0000000022064640        0x8 arch/arm/cpu/armv7/start.o
 .rel.text.device_bind_common.isra.0
                0x0000000022064648       0x10 arch/arm/cpu/armv7/start.o
 .rel.text.device_probe
                0x0000000022064658       0x18 arch/arm/cpu/armv7/start.o
 .rel.text.dev_get_platdata
                0x0000000022064670       0x10 arch/arm/cpu/armv7/start.o
 .rel.text.dev_get_parent_platdata
                0x0000000022064680       0x10 arch/arm/cpu/armv7/start.o
 .rel.text.dev_get_uclass_platdata
                0x0000000022064690       0x10 arch/arm/cpu/armv7/start.o
 .rel.text.dev_get_priv
                0x00000000220646a0       0x10 arch/arm/cpu/armv7/start.o
 .rel.text.dev_get_uclass_priv
                0x00000000220646b0       0x10 arch/arm/cpu/armv7/start.o
 .rel.text.dev_get_parent_priv
                0x00000000220646c0       0x10 arch/arm/cpu/armv7/start.o
 .rel.text.devfdt_get_addr_index
                0x00000000220646d0        0x8 arch/arm/cpu/armv7/start.o
 .rel.text.lists_driver_lookup_name
                0x00000000220646d8       0x10 arch/arm/cpu/armv7/start.o
 .rel.text.lists_uclass_lookup
                0x00000000220646e8       0x10 arch/arm/cpu/armv7/start.o
 .rel.text.lists_bind_drivers
                0x00000000220646f8       0x18 arch/arm/cpu/armv7/start.o
 .rel.text.lists_bind_fdt
                0x0000000022064710       0x28 arch/arm/cpu/armv7/start.o
 .rel.text.dm_scan_fdt_node
                0x0000000022064738       0x10 arch/arm/cpu/armv7/start.o
 .rel.text.dm_root
                0x0000000022064748        0x8 arch/arm/cpu/armv7/start.o
 .rel.text.dm_init
                0x0000000022064750       0x10 arch/arm/cpu/armv7/start.o
 .rel.text.dm_scan_platdata
                0x0000000022064760        0x8 arch/arm/cpu/armv7/start.o
 .rel.text.dm_extended_scan_fdt
                0x0000000022064768        0x8 arch/arm/cpu/armv7/start.o
 .rel.text.uclass_resolve_seq
                0x0000000022064770        0x8 arch/arm/cpu/armv7/start.o
 .rel.text.dm_fdt_pre_reloc
                0x0000000022064778       0x18 arch/arm/cpu/armv7/start.o
 .rel.text.device_remove
                0x0000000022064790       0x20 arch/arm/cpu/armv7/start.o
 .rel.text.simple_bus_post_bind
                0x00000000220647b0        0x8 arch/arm/cpu/armv7/start.o
 .rel.text.show_devices
                0x00000000220647b8       0x30 arch/arm/cpu/armv7/start.o
 .rel.text.dm_dump_all
                0x00000000220647e8       0x10 arch/arm/cpu/armv7/start.o
 .rel.text.dm_dump_uclass
                0x00000000220647f8       0x20 arch/arm/cpu/armv7/start.o
 .rel.text.regmap_init_mem
                0x0000000022064818        0x8 arch/arm/cpu/armv7/start.o
 .rel.text.ofnode_get_chosen_prop
                0x0000000022064820        0x8 arch/arm/cpu/armv7/start.o
 .rel.text.ofnode_pre_reloc
                0x0000000022064828       0x18 arch/arm/cpu/armv7/start.o
 .rel.text.pinconfig_post_bind
                0x0000000022064840       0x10 arch/arm/cpu/armv7/start.o
 .rel.text.pinctrl_select_state
                0x0000000022064850       0x18 arch/arm/cpu/armv7/start.o
 .rel.text.atmel_pinctrl_set_state
                0x0000000022064868       0xa8 arch/arm/cpu/armv7/start.o
 .rel.text.timer_pre_probe
                0x0000000022064910        0x8 arch/arm/cpu/armv7/start.o
 .rel.text.dm_timer_init
                0x0000000022064918        0x8 arch/arm/cpu/armv7/start.o
 .rel.text.blk_get_if_type_name
                0x0000000022064920        0x8 arch/arm/cpu/armv7/start.o
 .rel.text.blk_get_devnum_by_typename
                0x0000000022064928       0x10 arch/arm/cpu/armv7/start.o
 .rel.text.blk_list_devices
                0x0000000022064938        0x8 arch/arm/cpu/armv7/start.o
 .rel.text.blk_print_device_num
                0x0000000022064940        0x8 arch/arm/cpu/armv7/start.o
 .rel.text.blk_show_device
                0x0000000022064948       0x10 arch/arm/cpu/armv7/start.o
 .rel.text.blk_create_devicef
                0x0000000022064958        0x8 arch/arm/cpu/armv7/start.o
 .rel.text.blkcache_read
                0x0000000022064960       0x10 arch/arm/cpu/armv7/start.o
 .rel.text.blkcache_fill
                0x0000000022064970       0x10 arch/arm/cpu/armv7/start.o
 .rel.text.blkcache_invalidate
                0x0000000022064980       0x10 arch/arm/cpu/armv7/start.o
 .rel.text.blkcache_configure
                0x0000000022064990       0x10 arch/arm/cpu/armv7/start.o
 .rel.text.blkcache_stats
                0x00000000220649a0        0x8 arch/arm/cpu/armv7/start.o
 .rel.text.mmc_set_capacity
                0x00000000220649a8       0x40 arch/arm/cpu/armv7/start.o
 .rel.text.mmc_mode_name
                0x00000000220649e8       0x10 arch/arm/cpu/armv7/start.o
 .rel.text.mmc_send_status
                0x00000000220649f8       0x10 arch/arm/cpu/armv7/start.o
 .rel.text.mmc_bread
                0x0000000022064a08       0x10 arch/arm/cpu/armv7/start.o
 .rel.text.mmc_startup_v4
                0x0000000022064a18        0x8 arch/arm/cpu/armv7/start.o
 .rel.text.mmc_set_card_speed
                0x0000000022064a20       0x30 arch/arm/cpu/armv7/start.o
 .rel.text.mmc_hwpart_config
                0x0000000022064a50       0x48 arch/arm/cpu/armv7/start.o
 .rel.text.mmc_startup
                0x0000000022064a98       0x88 arch/arm/cpu/armv7/start.o
 .rel.text.mmc_start_init
                0x0000000022064b20       0x10 arch/arm/cpu/armv7/start.o
 .rel.text.mmc_initialize
                0x0000000022064b30       0x10 arch/arm/cpu/armv7/start.o
 .rel.text.find_mmc_device
                0x0000000022064b40        0x8 arch/arm/cpu/armv7/start.o
 .rel.text.print_mmc_devices
                0x0000000022064b48       0x38 arch/arm/cpu/armv7/start.o
 .rel.text.mmc_bind
                0x0000000022064b80       0x10 arch/arm/cpu/armv7/start.o
 .rel.text.mmc_berase
                0x0000000022064b90       0x10 arch/arm/cpu/armv7/start.o
 .rel.text.mmc_bwrite
                0x0000000022064ba0       0x18 arch/arm/cpu/armv7/start.o
 .rel.text.sdhci_reset.isra.3
                0x0000000022064bb8       0x10 arch/arm/cpu/armv7/start.o
 .rel.text.sdhci_set_clock.isra.5
                0x0000000022064bc8       0x18 arch/arm/cpu/armv7/start.o
 .rel.text.sdhci_send_command
                0x0000000022064be0       0x40 arch/arm/cpu/armv7/start.o
 .rel.text.sdhci_probe
                0x0000000022064c20       0x18 arch/arm/cpu/armv7/start.o
 .rel.text.sdhci_setup_cfg
                0x0000000022064c38       0x10 arch/arm/cpu/armv7/start.o
 .rel.text.atmel_sdhci_probe
                0x0000000022064c48        0x8 arch/arm/cpu/armv7/start.o
 .rel.text.w1_gpio_ofdata_to_platdata
                0x0000000022064c50       0x10 arch/arm/cpu/armv7/start.o
 .rel.rodata.clk_fixed_rate_match
                0x0000000022064c60        0x8 arch/arm/cpu/armv7/start.o
 .rel.rodata.clk_fixed_rate_ops
                0x0000000022064c68        0x8 arch/arm/cpu/armv7/start.o
 .rel.rodata.at91_pmc_match
                0x0000000022064c70       0x38 arch/arm/cpu/armv7/start.o
 .rel.rodata.at91_sckc_match
                0x0000000022064ca8        0x8 arch/arm/cpu/armv7/start.o
 .rel.rodata.at91_slow_clk_match
                0x0000000022064cb0        0x8 arch/arm/cpu/armv7/start.o
 .rel.rodata.main_osc_clk_match
                0x0000000022064cb8        0x8 arch/arm/cpu/armv7/start.o
 .rel.rodata.plla_clk_match
                0x0000000022064cc0        0x8 arch/arm/cpu/armv7/start.o
 .rel.rodata.at91_plladiv_clk_match
                0x0000000022064cc8        0x8 arch/arm/cpu/armv7/start.o
 .rel.rodata.at91_master_clk_match
                0x0000000022064cd0       0x10 arch/arm/cpu/armv7/start.o
 .rel.rodata.at91_system_clk_match
                0x0000000022064ce0        0x8 arch/arm/cpu/armv7/start.o
 .rel.rodata.sam9x5_periph_clk_match
                0x0000000022064ce8       0x10 arch/arm/cpu/armv7/start.o
 .rel.rodata.utmi_clk_match
                0x0000000022064cf8        0x8 arch/arm/cpu/armv7/start.o
 .rel.rodata.sama5d4_h32mx_clk_match
                0x0000000022064d00        0x8 arch/arm/cpu/armv7/start.o
 .rel.rodata.generated_clk_match
                0x0000000022064d08        0x8 arch/arm/cpu/armv7/start.o
 .rel.rodata.root_info
                0x0000000022064d10        0x8 arch/arm/cpu/armv7/start.o
 .rel.rodata.generic_simple_bus_ids
                0x0000000022064d18       0x10 arch/arm/cpu/armv7/start.o
 .rel.rodata.generic_syscon_ids
                0x0000000022064d28        0x8 arch/arm/cpu/armv7/start.o
 .rel.rodata.atmel_pinctrl_match
                0x0000000022064d30        0x8 arch/arm/cpu/armv7/start.o
 .rel.rodata.atmel_pinctrl_ops
                0x0000000022064d38        0x8 arch/arm/cpu/armv7/start.o
 .rel.rodata.conf_params
                0x0000000022064d40       0x38 arch/arm/cpu/armv7/start.o
 .rel.rodata.atmel_pit_ids
                0x0000000022064d78        0x8 arch/arm/cpu/armv7/start.o
 .rel.rodata.atmel_pit_ops
                0x0000000022064d80        0x8 arch/arm/cpu/armv7/start.o
 .rel.rodata.if_typename_str
                0x0000000022064d88       0x58 arch/arm/cpu/armv7/start.o
 .rel.rodata.i2c_eeprom_std_ids
                0x0000000022064de0       0x68 arch/arm/cpu/armv7/start.o
 .rel.rodata.i2c_eeprom_std_ops
                0x0000000022064e48       0x10 arch/arm/cpu/armv7/start.o
 .rel.rodata.names.10243
                0x0000000022064e58       0x60 arch/arm/cpu/armv7/start.o
 .rel.rodata.mmc_blk_ops
                0x0000000022064eb8       0x20 arch/arm/cpu/armv7/start.o
 .rel.rodata.sdhci_ops
                0x0000000022064ed8       0x10 arch/arm/cpu/armv7/start.o
 .rel.rodata.atmel_sdhci_ids
                0x0000000022064ee8        0x8 arch/arm/cpu/armv7/start.o
 .rel.rodata.w1_gpio_id
                0x0000000022064ef0        0x8 arch/arm/cpu/armv7/start.o
 .rel.rodata.w1_gpio_ops
                0x0000000022064ef8       0x20 arch/arm/cpu/armv7/start.o
 .rel.rodata.ds24xxx_id
                0x0000000022064f18       0x10 arch/arm/cpu/armv7/start.o
 .rel.rodata.ds24xxx_ops
                0x0000000022064f28        0x8 arch/arm/cpu/armv7/start.o
 .rel.u_boot_list_2_uclass_2_clk
                0x0000000022064f30        0x8 arch/arm/cpu/armv7/start.o
 .rel.u_boot_list_2_driver_2_clk_fixed_rate
                0x0000000022064f38       0x20 arch/arm/cpu/armv7/start.o
 .rel.u_boot_list_2_driver_2_at91_pmc
                0x0000000022064f58       0x10 arch/arm/cpu/armv7/start.o
 .rel.u_boot_list_2_driver_2_at91_sckc
                0x0000000022064f68       0x10 arch/arm/cpu/armv7/start.o
 .rel.data.at91_slow_clk_ops
                0x0000000022064f78       0x10 arch/arm/cpu/armv7/start.o
 .rel.u_boot_list_2_driver_2_at91_slow_clk
                0x0000000022064f88       0x18 arch/arm/cpu/armv7/start.o
 .rel.data.main_osc_clk_ops
                0x0000000022064fa0       0x10 arch/arm/cpu/armv7/start.o
 .rel.u_boot_list_2_driver_2_at91sam9x5_main_osc_clk
                0x0000000022064fb0       0x20 arch/arm/cpu/armv7/start.o
 .rel.data.plla_clk_ops
                0x0000000022064fd0       0x10 arch/arm/cpu/armv7/start.o
 .rel.u_boot_list_2_driver_2_at91_plla_clk
                0x0000000022064fe0       0x20 arch/arm/cpu/armv7/start.o
 .rel.data.at91_plladiv_clk_ops
                0x0000000022065000       0x18 arch/arm/cpu/armv7/start.o
 .rel.u_boot_list_2_driver_2_at91_plladiv_clk
                0x0000000022065018       0x20 arch/arm/cpu/armv7/start.o
 .rel.data.at91_master_clk_ops
                0x0000000022065038        0x8 arch/arm/cpu/armv7/start.o
 .rel.u_boot_list_2_driver_2_at91_master_clk
                0x0000000022065040       0x18 arch/arm/cpu/armv7/start.o
 .rel.data.system_clk_ops
                0x0000000022065058       0x20 arch/arm/cpu/armv7/start.o
 .rel.u_boot_list_2_driver_2_at91_system_clk
                0x0000000022065078       0x18 arch/arm/cpu/armv7/start.o
 .rel.u_boot_list_2_driver_2_system_clk
                0x0000000022065090       0x18 arch/arm/cpu/armv7/start.o
 .rel.data.periph_clk_ops
                0x00000000220650a8       0x18 arch/arm/cpu/armv7/start.o
 .rel.u_boot_list_2_driver_2_clk_periph
                0x00000000220650c0       0x18 arch/arm/cpu/armv7/start.o
 .rel.u_boot_list_2_driver_2_sam9x5_periph_clk
                0x00000000220650d8       0x18 arch/arm/cpu/armv7/start.o
 .rel.data.utmi_clk_ops
                0x00000000220650f0       0x10 arch/arm/cpu/armv7/start.o
 .rel.u_boot_list_2_driver_2_at91sam9x5_utmi_clk
                0x0000000022065100       0x28 arch/arm/cpu/armv7/start.o
 .rel.data.sama5d4_h32mx_clk_ops
                0x0000000022065128        0x8 arch/arm/cpu/armv7/start.o
 .rel.u_boot_list_2_driver_2_sama5d4_h32mx_clk
                0x0000000022065130       0x20 arch/arm/cpu/armv7/start.o
 .rel.data.generic_clk_ops
                0x0000000022065150       0x18 arch/arm/cpu/armv7/start.o
 .rel.u_boot_list_2_driver_2_generated_clk
                0x0000000022065168       0x18 arch/arm/cpu/armv7/start.o
 .rel.u_boot_list_2_driver_2_generic_clk
                0x0000000022065180       0x20 arch/arm/cpu/armv7/start.o
 .rel.u_boot_list_2_driver_2_root_driver
                0x00000000220651a0        0x8 arch/arm/cpu/armv7/start.o
 .rel.u_boot_list_2_uclass_2_root
                0x00000000220651a8        0x8 arch/arm/cpu/armv7/start.o
 .rel.u_boot_list_2_driver_2_simple_bus_drv
                0x00000000220651b0       0x10 arch/arm/cpu/armv7/start.o
 .rel.u_boot_list_2_uclass_2_simple_bus
                0x00000000220651c0       0x10 arch/arm/cpu/armv7/start.o
 .rel.u_boot_list_2_driver_2_generic_syscon
                0x00000000220651d0       0x18 arch/arm/cpu/armv7/start.o
 .rel.u_boot_list_2_uclass_2_syscon
                0x00000000220651e8       0x10 arch/arm/cpu/armv7/start.o
 .rel.u_boot_list_2_driver_2_pinconfig_generic
                0x00000000220651f8        0x8 arch/arm/cpu/armv7/start.o
 .rel.u_boot_list_2_uclass_2_pinconfig
                0x0000000022065200       0x10 arch/arm/cpu/armv7/start.o
 .rel.u_boot_list_2_uclass_2_pinctrl
                0x0000000022065210       0x10 arch/arm/cpu/armv7/start.o
 .rel.u_boot_list_2_driver_2_atmel_pinctrl
                0x0000000022065220       0x20 arch/arm/cpu/armv7/start.o
 .rel.u_boot_list_2_uclass_2_timer
                0x0000000022065240       0x18 arch/arm/cpu/armv7/start.o
 .rel.u_boot_list_2_driver_2_atmel_pit
                0x0000000022065258       0x28 arch/arm/cpu/armv7/start.o
 .rel.u_boot_list_2_uclass_2_blk
                0x0000000022065280        0x8 arch/arm/cpu/armv7/start.o
 .rel.data.block_cache
                0x0000000022065288       0x10 arch/arm/cpu/armv7/start.o
 .rel.u_boot_list_2_uclass_2_misc
                0x0000000022065298        0x8 arch/arm/cpu/armv7/start.o
 .rel.u_boot_list_2_driver_2_i2c_eeprom_std
                0x00000000220652a0       0x28 arch/arm/cpu/armv7/start.o
 .rel.u_boot_list_2_uclass_2_i2c_eeprom
                0x00000000220652c8        0x8 arch/arm/cpu/armv7/start.o
 .rel.u_boot_list_2_driver_2_mmc
                0x00000000220652d0        0x8 arch/arm/cpu/armv7/start.o
 .rel.u_boot_list_2_driver_2_mmc_blk
                0x00000000220652d8       0x18 arch/arm/cpu/armv7/start.o
 .rel.u_boot_list_2_uclass_2_mmc
                0x00000000220652f0        0x8 arch/arm/cpu/armv7/start.o
 .rel.u_boot_list_2_driver_2_atmel_sdhci_drv
                0x00000000220652f8       0x28 arch/arm/cpu/armv7/start.o
 .rel.u_boot_list_2_uclass_2_w1
                0x0000000022065320       0x18 arch/arm/cpu/armv7/start.o
 .rel.u_boot_list_2_driver_2_w1_gpio_drv
                0x0000000022065338       0x20 arch/arm/cpu/armv7/start.o
 .rel.u_boot_list_2_uclass_2_w1_eeprom
                0x0000000022065358       0x10 arch/arm/cpu/armv7/start.o
 .rel.u_boot_list_2_driver_2_ds24xxx
                0x0000000022065368       0x20 arch/arm/cpu/armv7/start.o
 .rel.text.check_reserved
                0x0000000022065388       0x10 arch/arm/cpu/armv7/start.o
 .rel.text.dm_gpio_get_value
                0x0000000022065398        0x8 arch/arm/cpu/armv7/start.o
 .rel.text.dm_gpio_set_value
                0x00000000220653a0        0x8 arch/arm/cpu/armv7/start.o
 .rel.text.dm_gpio_set_dir_flags
                0x00000000220653a8        0x8 arch/arm/cpu/armv7/start.o
 .rel.text.gpio_request_tail
                0x00000000220653b0       0x10 arch/arm/cpu/armv7/start.o
 .rel.text.gpio_request_by_name
                0x00000000220653c0        0x8 arch/arm/cpu/armv7/start.o
 .rel.text.gpio_request_list_by_name_nodev
                0x00000000220653c8        0x8 arch/arm/cpu/armv7/start.o
 .rel.text.atmel_pio4_port_base
                0x00000000220653d0       0x28 arch/arm/cpu/armv7/start.o
 .rel.rodata.atmel_pio4_ids
                0x00000000220653f8       0x10 arch/arm/cpu/armv7/start.o
 .rel.rodata.atmel_pio4_ops
                0x0000000022065408       0x28 arch/arm/cpu/armv7/start.o
 .rel.u_boot_list_2_uclass_2_gpio
                0x0000000022065430       0x18 arch/arm/cpu/armv7/start.o
 .rel.u_boot_list_2_driver_2_gpio_atmel_pio4
                0x0000000022065448       0x28 arch/arm/cpu/armv7/start.o
 .rel.text.i2c_get_chip
                0x0000000022065470       0x10 arch/arm/cpu/armv7/start.o
 .rel.text.i2c_post_probe
                0x0000000022065480        0x8 arch/arm/cpu/armv7/start.o
 .rel.text.i2c_deblock
                0x0000000022065488       0x18 arch/arm/cpu/armv7/start.o
 .rel.text.i2c_chip_ofdata_to_platdata
                0x00000000220654a0       0x10 arch/arm/cpu/armv7/start.o
 .rel.text.at91_i2c_ofdata_to_platdata
                0x00000000220654b0        0x8 arch/arm/cpu/armv7/start.o
 .rel.rodata.at91_i2c_ids
                0x00000000220654b8       0x80 arch/arm/cpu/armv7/start.o
 .rel.rodata.at91_i2c_ops
                0x0000000022065538       0x18 arch/arm/cpu/armv7/start.o
 .rel.u_boot_list_2_driver_2_i2c_generic_chip_drv
                0x0000000022065550        0x8 arch/arm/cpu/armv7/start.o
 .rel.u_boot_list_2_uclass_2_i2c
                0x0000000022065558       0x20 arch/arm/cpu/armv7/start.o
 .rel.u_boot_list_2_uclass_2_i2c_generic
                0x0000000022065578        0x8 arch/arm/cpu/armv7/start.o
 .rel.u_boot_list_2_driver_2_i2c_at91
                0x0000000022065580       0x28 arch/arm/cpu/armv7/start.o
 .rel.text.mtd_arg_off
                0x00000000220655a8       0x10 arch/arm/cpu/armv7/start.o
 .rel.text.mtd_arg_off_size
                0x00000000220655b8       0x28 arch/arm/cpu/armv7/start.o
 .rel.text.spi_flash_probe_bus_cs
                0x00000000220655e0       0x10 arch/arm/cpu/armv7/start.o
 .rel.text.spi_flash_std_probe
                0x00000000220655f0        0x8 arch/arm/cpu/armv7/start.o
 .rel.text.spi_flash_wait_till_ready
                0x00000000220655f8        0x8 arch/arm/cpu/armv7/start.o
 .rel.text.spi_flash_cmd_erase_ops
                0x0000000022065600       0x10 arch/arm/cpu/armv7/start.o
 .rel.text.spi_flash_cmd_write_ops
                0x0000000022065610        0x8 arch/arm/cpu/armv7/start.o
 .rel.text.sst26_lock_ctl
                0x0000000022065618       0x10 arch/arm/cpu/armv7/start.o
 .rel.text.spi_flash_decode_fdt
                0x0000000022065628        0x8 arch/arm/cpu/armv7/start.o
 .rel.text.spi_flash_scan
                0x0000000022065630       0xd0 arch/arm/cpu/armv7/start.o
 .rel.rodata.spi_flash_std_ids
                0x0000000022065700        0x8 arch/arm/cpu/armv7/start.o
 .rel.rodata.spi_flash_std_ops
                0x0000000022065708       0x18 arch/arm/cpu/armv7/start.o
 .rel.rodata.spi_flash_ids
                0x0000000022065720      0x238 arch/arm/cpu/armv7/start.o
 .rel.u_boot_list_2_uclass_2_spi_flash
                0x0000000022065958       0x10 arch/arm/cpu/armv7/start.o
 .rel.u_boot_list_2_driver_2_spi_flash_std
                0x0000000022065968       0x20 arch/arm/cpu/armv7/start.o
 .rel.text.macb_send
                0x0000000022065988       0x18 arch/arm/cpu/armv7/start.o
 .rel.text.macb_recv
                0x00000000220659a0        0x8 arch/arm/cpu/armv7/start.o
 .rel.text.macb_eth_probe
                0x00000000220659a8       0x18 arch/arm/cpu/armv7/start.o
 .rel.text.macb_start
                0x00000000220659c0       0x70 arch/arm/cpu/armv7/start.o
 .rel.rodata.macb_eth_ids
                0x0000000022065a30       0x30 arch/arm/cpu/armv7/start.o
 .rel.rodata.macb_eth_ops
                0x0000000022065a60       0x30 arch/arm/cpu/armv7/start.o
 .rel.u_boot_list_2_driver_2_eth_macb
                0x0000000022065a90       0x30 arch/arm/cpu/armv7/start.o
 .rel.text.genphy_update_link
                0x0000000022065ac0       0x28 arch/arm/cpu/armv7/start.o
 .rel.text.get_phy_device_by_mask
                0x0000000022065ae8       0x18 arch/arm/cpu/armv7/start.o
 .rel.text.phy_reset
                0x0000000022065b00        0x8 arch/arm/cpu/armv7/start.o
 .rel.text.phy_connect_dev
                0x0000000022065b08        0x8 arch/arm/cpu/armv7/start.o
 .rel.text.phy_connect
                0x0000000022065b10        0x8 arch/arm/cpu/armv7/start.o
 .rel.text.phy_get_interface_by_name
                0x0000000022065b18        0x8 arch/arm/cpu/armv7/start.o
 .rel.rodata.phy_interface_strings
                0x0000000022065b20       0x90 arch/arm/cpu/armv7/start.o
 .rel.data.genphy_driver
                0x0000000022065bb0       0x20 arch/arm/cpu/armv7/start.o
 .rel.data.phy_drivers
                0x0000000022065bd0       0x10 arch/arm/cpu/armv7/start.o
 .rel.text.serial_post_probe
                0x0000000022065be0       0x20 arch/arm/cpu/armv7/start.o
 .rel.text.serial_init
                0x0000000022065c00       0x18 arch/arm/cpu/armv7/start.o
 .rel.text.on_baudrate
                0x0000000022065c18       0x18 arch/arm/cpu/armv7/start.o
 .rel.text.debug_uart_init
                0x0000000022065c30        0x8 arch/arm/cpu/armv7/start.o
 .rel.rodata.atmel_serial_ids
                0x0000000022065c38       0x10 arch/arm/cpu/armv7/start.o
 .rel.rodata.atmel_serial_ops
                0x0000000022065c48       0x20 arch/arm/cpu/armv7/start.o
 .rel.u_boot_list_2_env_clbk_2_baudrate
                0x0000000022065c68       0x10 arch/arm/cpu/armv7/start.o
 .rel.u_boot_list_2_uclass_2_serial
                0x0000000022065c78       0x18 arch/arm/cpu/armv7/start.o
 .rel.u_boot_list_2_driver_2_serial_atmel
                0x0000000022065c90       0x20 arch/arm/cpu/armv7/start.o
 .rel.text.spi_set_speed_mode
                0x0000000022065cb0       0x10 arch/arm/cpu/armv7/start.o
 .rel.text.spi_post_probe
                0x0000000022065cc0        0x8 arch/arm/cpu/armv7/start.o
 .rel.text.spi_get_bus_and_cs
                0x0000000022065cc8       0x10 arch/arm/cpu/armv7/start.o
 .rel.text.spi_slave_ofdata_to_platdata
                0x0000000022065cd8       0x58 arch/arm/cpu/armv7/start.o
 .rel.text.atmel_spi_probe
                0x0000000022065d30       0x10 arch/arm/cpu/armv7/start.o
 .rel.text.atmel_qspi_ofdata_to_platdata
                0x0000000022065d40       0x10 arch/arm/cpu/armv7/start.o
 .rel.text.atmel_qspi_exec_flash_command
                0x0000000022065d50       0x68 arch/arm/cpu/armv7/start.o
 .rel.rodata.atmel_spi_ids
                0x0000000022065db8        0x8 arch/arm/cpu/armv7/start.o
 .rel.rodata.atmel_spi_ops
                0x0000000022065dc0       0x28 arch/arm/cpu/armv7/start.o
 .rel.rodata.atmel_qspi_ids
                0x0000000022065de8        0x8 arch/arm/cpu/armv7/start.o
 .rel.rodata.atmel_qspi_ops
                0x0000000022065df0       0x28 arch/arm/cpu/armv7/start.o
 .rel.u_boot_list_2_driver_2_spi_generic_drv
                0x0000000022065e18        0x8 arch/arm/cpu/armv7/start.o
 .rel.u_boot_list_2_uclass_2_spi
                0x0000000022065e20       0x28 arch/arm/cpu/armv7/start.o
 .rel.u_boot_list_2_uclass_2_spi_generic
                0x0000000022065e48        0x8 arch/arm/cpu/armv7/start.o
 .rel.u_boot_list_2_driver_2_atmel_spi
                0x0000000022065e50       0x20 arch/arm/cpu/armv7/start.o
 .rel.u_boot_list_2_driver_2_atmel_qspi
                0x0000000022065e70       0x28 arch/arm/cpu/armv7/start.o
 .rel.text.usb_child_post_bind
                0x0000000022065e98       0x10 arch/arm/cpu/armv7/start.o
 .rel.text.usb_disable_asynch
                0x0000000022065ea8        0x8 arch/arm/cpu/armv7/start.o
 .rel.text.usb_stop
                0x0000000022065eb0        0x8 arch/arm/cpu/armv7/start.o
 .rel.text.usb_scan_device
                0x0000000022065eb8       0x20 arch/arm/cpu/armv7/start.o
 .rel.text.usb_scan_bus.isra.3
                0x0000000022065ed8       0x20 arch/arm/cpu/armv7/start.o
 .rel.text.usb_init
                0x0000000022065ef8       0x38 arch/arm/cpu/armv7/start.o
 .rel.text.ehci_td_buffer
                0x0000000022065f30        0x8 arch/arm/cpu/armv7/start.o
 .rel.text.ehci_shutdown
                0x0000000022065f38        0x8 arch/arm/cpu/armv7/start.o
 .rel.text.disable_periodic.isra.1
                0x0000000022065f40        0x8 arch/arm/cpu/armv7/start.o
 .rel.text.enable_periodic.isra.2
                0x0000000022065f48        0x8 arch/arm/cpu/armv7/start.o
 .rel.text._ehci_destroy_int_queue
                0x0000000022065f50        0x8 arch/arm/cpu/armv7/start.o
 .rel.text.ehci_submit_async
                0x0000000022065f58       0x30 arch/arm/cpu/armv7/start.o
 .rel.text._ehci_create_int_queue.isra.5
                0x0000000022065f88       0x10 arch/arm/cpu/armv7/start.o
 .rel.text.ehci_submit_int_msg
                0x0000000022065f98        0x8 arch/arm/cpu/armv7/start.o
 .rel.text.ehci_submit_control_msg
                0x0000000022065fa0       0x28 arch/arm/cpu/armv7/start.o
 .rel.text.ehci_register
                0x0000000022065fc8       0x38 arch/arm/cpu/armv7/start.o
 .rel.rodata.ehci_usb_ids
                0x0000000022066000        0x8 arch/arm/cpu/armv7/start.o
 .rel.u_boot_list_2_driver_2_usb_dev_generic_drv
                0x0000000022066008        0x8 arch/arm/cpu/armv7/start.o
 .rel.u_boot_list_2_uclass_2_usb
                0x0000000022066010       0x20 arch/arm/cpu/armv7/start.o
 .rel.u_boot_list_2_uclass_2_usb_dev_generic
                0x0000000022066030        0x8 arch/arm/cpu/armv7/start.o
 .rel.data.ehci_usb_ops
                0x0000000022066038       0x38 arch/arm/cpu/armv7/start.o
 .rel.u_boot_list_2_driver_2_ehci_atmel
                0x0000000022066070       0x28 arch/arm/cpu/armv7/start.o
 .rel.text.set_default_env
                0x0000000022066098       0x28 arch/arm/cpu/armv7/start.o
 .rel.text.set_default_vars
                0x00000000220660c0       0x10 arch/arm/cpu/armv7/start.o
 .rel.text.env_import
                0x00000000220660d0       0x28 arch/arm/cpu/armv7/start.o
 .rel.text.env_export
                0x00000000220660f8       0x18 arch/arm/cpu/armv7/start.o
 .rel.text.env_relocate
                0x0000000022066110        0x8 arch/arm/cpu/armv7/start.o
 .rel.text.env_complete
                0x0000000022066118       0x18 arch/arm/cpu/armv7/start.o
 .rel.text.env_driver_lookup
                0x0000000022066130       0x10 arch/arm/cpu/armv7/start.o
 .rel.text.env_get_char
                0x0000000022066140        0x8 arch/arm/cpu/armv7/start.o
 .rel.text.env_load
                0x0000000022066148       0x18 arch/arm/cpu/armv7/start.o
 .rel.text.env_save
                0x0000000022066160       0x18 arch/arm/cpu/armv7/start.o
 .rel.text.env_init
                0x0000000022066178        0x8 arch/arm/cpu/armv7/start.o
 .rel.text.regex_callback
                0x0000000022066180       0x10 arch/arm/cpu/armv7/start.o
 .rel.text.env_attr_lookup
                0x0000000022066190        0x8 arch/arm/cpu/armv7/start.o
 .rel.text.find_env_callback
                0x0000000022066198       0x10 arch/arm/cpu/armv7/start.o
 .rel.text.on_callbacks
                0x00000000220661a8       0x20 arch/arm/cpu/armv7/start.o
 .rel.text.set_callback
                0x00000000220661c8        0x8 arch/arm/cpu/armv7/start.o
 .rel.text.env_callback_init
                0x00000000220661d0       0x20 arch/arm/cpu/armv7/start.o
 .rel.text.skip_num
                0x00000000220661f0        0x8 arch/arm/cpu/armv7/start.o
 .rel.text.on_flags
                0x00000000220661f8       0x20 arch/arm/cpu/armv7/start.o
 .rel.text.env_flags_parse_vartype
                0x0000000022066218       0x10 arch/arm/cpu/armv7/start.o
 .rel.text.env_flags_parse_varaccess
                0x0000000022066228       0x10 arch/arm/cpu/armv7/start.o
 .rel.text.set_flags
                0x0000000022066238       0x10 arch/arm/cpu/armv7/start.o
 .rel.text.env_flags_init
                0x0000000022066248       0x30 arch/arm/cpu/armv7/start.o
 .rel.text.env_flags_validate
                0x0000000022066278       0x68 arch/arm/cpu/armv7/start.o
 .rel.text.env_fat_save
                0x00000000220662e0       0x28 arch/arm/cpu/armv7/start.o
 .rel.text.env_fat_load
                0x0000000022066308       0x28 arch/arm/cpu/armv7/start.o
 .rel.data.env_htab
                0x0000000022066330        0x8 arch/arm/cpu/armv7/start.o
 .rel.u_boot_list_2_env_clbk_2_callbacks
                0x0000000022066338       0x10 arch/arm/cpu/armv7/start.o
 .rel.u_boot_list_2_env_clbk_2_flags
                0x0000000022066348       0x10 arch/arm/cpu/armv7/start.o
 .rel.u_boot_list_2_env_driver_2_fat
                0x0000000022066358       0x18 arch/arm/cpu/armv7/start.o
 .rel.text.fs_probe_unsupported
                0x0000000022066370        0x8 arch/arm/cpu/armv7/start.o
 .rel.text.fs_get_info
                0x0000000022066378        0x8 arch/arm/cpu/armv7/start.o
 .rel.text.fs_close
                0x0000000022066380        0x8 arch/arm/cpu/armv7/start.o
 .rel.text.fs_set_blk_dev
                0x0000000022066388       0x28 arch/arm/cpu/armv7/start.o
 .rel.text.fs_set_blk_dev_with_part
                0x00000000220663b0       0x20 arch/arm/cpu/armv7/start.o
 .rel.text.fs_ls
                0x00000000220663d0        0x8 arch/arm/cpu/armv7/start.o
 .rel.text.fs_exists
                0x00000000220663d8        0x8 arch/arm/cpu/armv7/start.o
 .rel.text.fs_size
                0x00000000220663e0        0x8 arch/arm/cpu/armv7/start.o
 .rel.text.fs_read
                0x00000000220663e8        0x8 arch/arm/cpu/armv7/start.o
 .rel.text.fs_write
                0x00000000220663f0       0x10 arch/arm/cpu/armv7/start.o
 .rel.text.fs_opendir
                0x0000000022066400       0x20 arch/arm/cpu/armv7/start.o
 .rel.text.fs_readdir
                0x0000000022066420       0x10 arch/arm/cpu/armv7/start.o
 .rel.text.fs_closedir
                0x0000000022066430        0x8 arch/arm/cpu/armv7/start.o
 .rel.text.fs_ls_generic
                0x0000000022066438       0x20 arch/arm/cpu/armv7/start.o
 .rel.text.do_size
                0x0000000022066458        0x8 arch/arm/cpu/armv7/start.o
 .rel.text.do_load
                0x0000000022066460       0x50 arch/arm/cpu/armv7/start.o
 .rel.text.do_ls
                0x00000000220664b0        0x8 arch/arm/cpu/armv7/start.o
 .rel.text.get_fs
                0x00000000220664b8        0x8 arch/arm/cpu/armv7/start.o
 .rel.text.ext4fs_free_node
                0x00000000220664c0        0x8 arch/arm/cpu/armv7/start.o
 .rel.text.ext4fs_read_file
                0x00000000220664c8        0x8 arch/arm/cpu/armv7/start.o
 .rel.text.ext4fs_ls
                0x00000000220664d0       0x10 arch/arm/cpu/armv7/start.o
 .rel.text.ext4fs_read
                0x00000000220664e0       0x10 arch/arm/cpu/armv7/start.o
 .rel.text.ext4_read_file
                0x00000000220664f0        0x8 arch/arm/cpu/armv7/start.o
 .rel.text.ext4fs_uuid
                0x00000000220664f8        0x8 arch/arm/cpu/armv7/start.o
 .rel.text.read_allocated_block
                0x0000000022066500       0xb0 arch/arm/cpu/armv7/start.o
 .rel.text.ext4fs_reinit_global
                0x00000000220665b0       0x48 arch/arm/cpu/armv7/start.o
 .rel.text.ext4fs_close
                0x00000000220665f8       0x10 arch/arm/cpu/armv7/start.o
 .rel.text.ext4fs_iterate_dir
                0x0000000022066608       0x30 arch/arm/cpu/armv7/start.o
 .rel.text.ext4fs_find_file1
                0x0000000022066638       0x10 arch/arm/cpu/armv7/start.o
 .rel.text.ext4fs_find_file
                0x0000000022066648        0x8 arch/arm/cpu/armv7/start.o
 .rel.text.ext4fs_open
                0x0000000022066650       0x10 arch/arm/cpu/armv7/start.o
 .rel.text.ext4fs_mount
                0x0000000022066660       0x10 arch/arm/cpu/armv7/start.o
 .rel.text.ext4fs_set_blk_dev
                0x0000000022066670       0x10 arch/arm/cpu/armv7/start.o
 .rel.text.ext4fs_devread
                0x0000000022066680        0x8 arch/arm/cpu/armv7/start.o
 .rel.text.downcase
                0x0000000022066688        0x8 arch/arm/cpu/armv7/start.o
 .rel.text.disk_read
                0x0000000022066690       0x10 arch/arm/cpu/armv7/start.o
 .rel.text.get_cluster
                0x00000000220666a0        0x8 arch/arm/cpu/armv7/start.o
 .rel.text.read_bootsectandvi
                0x00000000220666a8       0x20 arch/arm/cpu/armv7/start.o
 .rel.text.fat_itr_root
                0x00000000220666c8       0x10 arch/arm/cpu/armv7/start.o
 .rel.text.disk_write
                0x00000000220666d8       0x20 arch/arm/cpu/armv7/start.o
 .rel.text.flush_dirty_fat_buffer
                0x00000000220666f8        0x8 arch/arm/cpu/armv7/start.o
 .rel.text.get_fatent
                0x0000000022066700        0x8 arch/arm/cpu/armv7/start.o
 .rel.text.set_cluster
                0x0000000022066708        0x8 arch/arm/cpu/armv7/start.o
 .rel.text.set_name
                0x0000000022066710        0x8 arch/arm/cpu/armv7/start.o
 .rel.text.check_overflow
                0x0000000022066718        0x8 arch/arm/cpu/armv7/start.o
 .rel.text.flush_dir_table.constprop.8
                0x0000000022066720       0x20 arch/arm/cpu/armv7/start.o
 .rel.text.do_fat_write
                0x0000000022066740       0x80 arch/arm/cpu/armv7/start.o
 .rel.text.fat_set_blk_dev
                0x00000000220667c0       0x28 arch/arm/cpu/armv7/start.o
 .rel.text.file_fat_detectfs
                0x00000000220667e8       0xb0 arch/arm/cpu/armv7/start.o
 .rel.text.file_fat_read_at
                0x0000000022066898       0x18 arch/arm/cpu/armv7/start.o
 .rel.text.fat_read_file
                0x00000000220668b0        0x8 arch/arm/cpu/armv7/start.o
 .rel.text.file_fat_write
                0x00000000220668b8       0x10 arch/arm/cpu/armv7/start.o
 .rel.text.fs_devread
                0x00000000220668c8       0x30 arch/arm/cpu/armv7/start.o
 .rel.data.fstypes
                0x00000000220668f8      0x100 arch/arm/cpu/armv7/start.o
 .rel.text.efi_uc_destroy
                0x00000000220669f8        0x8 arch/arm/cpu/armv7/start.o
 .rel.text.efi_uc_init
                0x0000000022066a00        0x8 arch/arm/cpu/armv7/start.o
 .rel.text.check_node_type
                0x0000000022066a08       0x10 arch/arm/cpu/armv7/start.o
 .rel.text.efi_uc_start
                0x0000000022066a18        0x8 arch/arm/cpu/armv7/start.o
 .rel.text.efi_uc_supported
                0x0000000022066a20        0x8 arch/arm/cpu/armv7/start.o
 .rel.text.disconnect_child
                0x0000000022066a28        0x8 arch/arm/cpu/armv7/start.o
 .rel.text.efi_uc_stop
                0x0000000022066a30       0x20 arch/arm/cpu/armv7/start.o
 .rel.text.efi_driver_init
                0x0000000022066a50       0x40 arch/arm/cpu/armv7/start.o
 .rel.text.efi_bl_bind
                0x0000000022066a90       0x10 arch/arm/cpu/armv7/start.o
 .rel.text.efi_set_code_and_data_type
                0x0000000022066aa0       0x30 arch/arm/cpu/armv7/start.o
 .rel.text.efi_print_image_info
                0x0000000022066ad0       0x28 arch/arm/cpu/armv7/start.o
 .rel.text.efi_print_image_infos
                0x0000000022066af8       0x10 arch/arm/cpu/armv7/start.o
 .rel.text.efi_load_pe
                0x0000000022066b08       0x98 arch/arm/cpu/armv7/start.o
 .rel.text.efi_is_event
                0x0000000022066ba0        0x8 arch/arm/cpu/armv7/start.o
 .rel.text.__efi_entry_check
                0x0000000022066ba8       0x18 arch/arm/cpu/armv7/start.o
 .rel.text.__efi_exit_check
                0x0000000022066bc0       0x10 arch/arm/cpu/armv7/start.o
 .rel.text.efi_queue_event
                0x0000000022066bd0        0x8 arch/arm/cpu/armv7/start.o
 .rel.text.efi_get_next_monotonic_count
                0x0000000022066bd8        0x8 arch/arm/cpu/armv7/start.o
 .rel.text.efi_start_image
                0x0000000022066be0       0x18 arch/arm/cpu/armv7/start.o
 .rel.text.efi_raise_tpl
                0x0000000022066bf8        0x8 arch/arm/cpu/armv7/start.o
 .rel.text.efi_save_gd
                0x0000000022066c00        0x8 arch/arm/cpu/armv7/start.o
 .rel.text.efi_restore_gd
                0x0000000022066c08        0x8 arch/arm/cpu/armv7/start.o
 .rel.text.efi_exit
                0x0000000022066c10        0x8 arch/arm/cpu/armv7/start.o
 .rel.text.efi_signal_event
                0x0000000022066c18        0x8 arch/arm/cpu/armv7/start.o
 .rel.text.efi_exit_boot_services
                0x0000000022066c20       0x28 arch/arm/cpu/armv7/start.o
 .rel.text.efi_add_handle
                0x0000000022066c48        0x8 arch/arm/cpu/armv7/start.o
 .rel.text.efi_create_event
                0x0000000022066c50        0x8 arch/arm/cpu/armv7/start.o
 .rel.text.efi_timer_check
                0x0000000022066c58        0x8 arch/arm/cpu/armv7/start.o
 .rel.text.efi_wait_for_event
                0x0000000022066c60        0x8 arch/arm/cpu/armv7/start.o
 .rel.text.efi_restore_tpl
                0x0000000022066c68        0x8 arch/arm/cpu/armv7/start.o
 .rel.text.efi_search_obj
                0x0000000022066c70        0x8 arch/arm/cpu/armv7/start.o
 .rel.text.efi_locate_protocol
                0x0000000022066c78        0x8 arch/arm/cpu/armv7/start.o
 .rel.text.efi_locate_handle
                0x0000000022066c80        0x8 arch/arm/cpu/armv7/start.o
 .rel.text.efi_locate_device_path
                0x0000000022066c88        0x8 arch/arm/cpu/armv7/start.o
 .rel.text.efi_disconnect_controller
                0x0000000022066c90        0x8 arch/arm/cpu/armv7/start.o
 .rel.text.efi_bind_controller
                0x0000000022066c98        0x8 arch/arm/cpu/armv7/start.o
 .rel.text.efi_connect_controller
                0x0000000022066ca0        0x8 arch/arm/cpu/armv7/start.o
 .rel.text.efi_add_protocol
                0x0000000022066ca8        0x8 arch/arm/cpu/armv7/start.o
 .rel.text.efi_install_configuration_table
                0x0000000022066cb0       0x18 arch/arm/cpu/armv7/start.o
 .rel.text.efi_setup_loaded_image
                0x0000000022066cc8       0x38 arch/arm/cpu/armv7/start.o
 .rel.text.efi_load_image_from_path
                0x0000000022066d00       0x10 arch/arm/cpu/armv7/start.o
 .rel.text.efi_load_image
                0x0000000022066d10        0x8 arch/arm/cpu/armv7/start.o
 .rel.text.efi_reset_system_boottime
                0x0000000022066d18       0x10 arch/arm/cpu/armv7/start.o
 .rel.text.efi_runtime_relocate
                0x0000000022066d28       0x28 arch/arm/cpu/armv7/start.o
 .rel.text.efi_set_virtual_address_map
                0x0000000022066d50       0x18 arch/arm/cpu/armv7/start.o
 .rel.text.efi_cout_enable_cursor
                0x0000000022066d68        0x8 arch/arm/cpu/armv7/start.o
 .rel.text.efi_cout_set_cursor_position
                0x0000000022066d70       0x10 arch/arm/cpu/armv7/start.o
 .rel.text.efi_cout_clear_screen
                0x0000000022066d80        0x8 arch/arm/cpu/armv7/start.o
 .rel.text.efi_cout_set_attribute
                0x0000000022066d88       0x18 arch/arm/cpu/armv7/start.o
 .rel.text.efi_cout_output_string
                0x0000000022066da0       0x10 arch/arm/cpu/armv7/start.o
 .rel.text.efi_console_timer_notify
                0x0000000022066db0        0x8 arch/arm/cpu/armv7/start.o
 .rel.text.efi_cout_set_mode
                0x0000000022066db8        0x8 arch/arm/cpu/armv7/start.o
 .rel.text.efi_cout_query_mode
                0x0000000022066dc0       0x10 arch/arm/cpu/armv7/start.o
 .rel.text.efi_cin_read_key_stroke
                0x0000000022066dd0      0x180 arch/arm/cpu/armv7/start.o
 .rel.text.efi_console_register
                0x0000000022066f50       0x88 arch/arm/cpu/armv7/start.o
 .rel.text.efi_find_free_memory
                0x0000000022066fd8        0x8 arch/arm/cpu/armv7/start.o
 .rel.text.efi_add_memory_map
                0x0000000022066fe0       0x10 arch/arm/cpu/armv7/start.o
 .rel.text.efi_get_memory_map
                0x0000000022066ff0        0x8 arch/arm/cpu/armv7/start.o
 .rel.text.efi_memory_init
                0x0000000022066ff8       0x10 arch/arm/cpu/armv7/start.o
 .rel.text.efi_convert_single_device_node_to_text
                0x0000000022067008       0x98 arch/arm/cpu/armv7/start.o
 .rel.text.dp_fill
                0x00000000220670a0        0x8 arch/arm/cpu/armv7/start.o
 .rel.text.find_obj
                0x00000000220670a8       0x10 arch/arm/cpu/armv7/start.o
 .rel.text.efi_dp_append
                0x00000000220670b8        0x8 arch/arm/cpu/armv7/start.o
 .rel.text.efi_dp_append_node
                0x00000000220670c0        0x8 arch/arm/cpu/armv7/start.o
 .rel.text.efi_dp_append_instance
                0x00000000220670c8        0x8 arch/arm/cpu/armv7/start.o
 .rel.text.efi_dp_from_part
                0x00000000220670d0        0x8 arch/arm/cpu/armv7/start.o
 .rel.text.efi_dp_from_file
                0x00000000220670d8        0x8 arch/arm/cpu/armv7/start.o
 .rel.text.efi_dp_from_eth
                0x00000000220670e0        0x8 arch/arm/cpu/armv7/start.o
 .rel.text.efi_dp_from_mem
                0x00000000220670e8        0x8 arch/arm/cpu/armv7/start.o
 .rel.text.efi_file_getinfo
                0x00000000220670f0       0x10 arch/arm/cpu/armv7/start.o
 .rel.text.file_open
                0x0000000022067100       0x28 arch/arm/cpu/armv7/start.o
 .rel.text.efi_file_from_path
                0x0000000022067128        0x8 arch/arm/cpu/armv7/start.o
 .rel.text.efi_simple_file_system
                0x0000000022067130        0x8 arch/arm/cpu/armv7/start.o
 .rel.text.efi_to_native
                0x0000000022067138        0x8 arch/arm/cpu/armv7/start.o
 .rel.text.parse_attr.part.0
                0x0000000022067140       0x20 arch/arm/cpu/armv7/start.o
 .rel.text.efi_get_variable
                0x0000000022067160       0x18 arch/arm/cpu/armv7/start.o
 .rel.text.efi_set_variable
                0x0000000022067178       0x48 arch/arm/cpu/armv7/start.o
 .rel.text.get_var.constprop.0
                0x00000000220671c0       0x10 arch/arm/cpu/armv7/start.o
 .rel.text.efi_bootmgr_load
                0x00000000220671d0       0x30 arch/arm/cpu/armv7/start.o
 .rel.text.efi_watchdog_timer_notify
                0x0000000022067200       0x10 arch/arm/cpu/armv7/start.o
 .rel.text.efi_set_watchdog
                0x0000000022067210        0x8 arch/arm/cpu/armv7/start.o
 .rel.text.efi_watchdog_register
                0x0000000022067218       0x20 arch/arm/cpu/armv7/start.o
 .rel.text.efi_disk_add_dev.isra.0.part.1
                0x0000000022067238       0x38 arch/arm/cpu/armv7/start.o
 .rel.text.efi_fs_from_path
                0x0000000022067270        0x8 arch/arm/cpu/armv7/start.o
 .rel.text.efi_disk_create_partitions
                0x0000000022067278       0x18 arch/arm/cpu/armv7/start.o
 .rel.text.efi_disk_register
                0x0000000022067290       0x20 arch/arm/cpu/armv7/start.o
 .rel.text.efi_net_push
                0x00000000220672b0       0x10 arch/arm/cpu/armv7/start.o
 .rel.text.efi_network_timer_notify
                0x00000000220672c0       0x18 arch/arm/cpu/armv7/start.o
 .rel.text.efi_net_get_status
                0x00000000220672d8       0x10 arch/arm/cpu/armv7/start.o
 .rel.text.efi_net_transmit
                0x00000000220672e8        0x8 arch/arm/cpu/armv7/start.o
 .rel.text.efi_net_receive
                0x00000000220672f0       0x18 arch/arm/cpu/armv7/start.o
 .rel.text.efi_net_set_dhcp_ack
                0x0000000022067308        0x8 arch/arm/cpu/armv7/start.o
 .rel.text.efi_net_register
                0x0000000022067310       0xc0 arch/arm/cpu/armv7/start.o
 .rel.text.efi_smbios_register
                0x00000000220673d0        0x8 arch/arm/cpu/armv7/start.o
 .rel.text.fdt_next_tag
                0x00000000220673d8       0x48 arch/arm/cpu/armv7/start.o
 .rel.text.fdt_strerror
                0x0000000022067420       0x20 arch/arm/cpu/armv7/start.o
 .rel.text.fdt_address_cells
                0x0000000022067440        0x8 arch/arm/cpu/armv7/start.o
 .rel.text.fdt_size_cells
                0x0000000022067448        0x8 arch/arm/cpu/armv7/start.o
 .rel.text.overlay_adjust_node_phandles
                0x0000000022067450       0x10 arch/arm/cpu/armv7/start.o
 .rel.text.overlay_get_target
                0x0000000022067460       0x10 arch/arm/cpu/armv7/start.o
 .rel.text.fdt_overlay_apply
                0x0000000022067470       0x30 arch/arm/cpu/armv7/start.o
 .rel.text.fdt_get_phandle
                0x00000000220674a0       0x10 arch/arm/cpu/armv7/start.o
 .rel.text.fdt_get_alias_namelen
                0x00000000220674b0        0x8 arch/arm/cpu/armv7/start.o
 .rel.text.crc16_ccitt
                0x00000000220674b8        0x8 arch/arm/cpu/armv7/start.o
 .rel.text.smbios_write_type3
                0x00000000220674c0        0x8 arch/arm/cpu/armv7/start.o
 .rel.text.smbios_write_type2
                0x00000000220674c8       0x10 arch/arm/cpu/armv7/start.o
 .rel.text.smbios_write_type0
                0x00000000220674d8       0x18 arch/arm/cpu/armv7/start.o
 .rel.text.smbios_write_type1
                0x00000000220674f0       0x18 arch/arm/cpu/armv7/start.o
 .rel.text.smbios_write_type4
                0x0000000022067508        0x8 arch/arm/cpu/armv7/start.o
 .rel.text.write_smbios_table
                0x0000000022067510       0x18 arch/arm/cpu/armv7/start.o
 .rel.text.initcall_run_list
                0x0000000022067528        0x8 arch/arm/cpu/armv7/start.o
 .rel.text.lmb_alloc_base
                0x0000000022067530        0x8 arch/arm/cpu/armv7/start.o
 .rel.text.list_sort
                0x0000000022067538        0x8 arch/arm/cpu/armv7/start.o
 .rel.text.sha1_finish
                0x0000000022067540        0x8 arch/arm/cpu/armv7/start.o
 .rel.text.sha256_finish
                0x0000000022067548        0x8 arch/arm/cpu/armv7/start.o
 .rel.text.inflate_fast
                0x0000000022067550       0x18 arch/arm/cpu/armv7/start.o
 .rel.text.inflate_table
                0x0000000022067568       0x20 arch/arm/cpu/armv7/start.o
 .rel.text.inflateInit2_
                0x0000000022067588       0x10 arch/arm/cpu/armv7/start.o
 .rel.text.inflate
                0x0000000022067598      0x188 arch/arm/cpu/armv7/start.o
 .rel.text.gzip_parse_header
                0x0000000022067720       0x10 arch/arm/cpu/armv7/start.o
 .rel.text.zunzip
                0x0000000022067730       0x28 arch/arm/cpu/armv7/start.o
 .rel.text.fdtdec_get_is_enabled
                0x0000000022067758       0x10 arch/arm/cpu/armv7/start.o
 .rel.text.fdtdec_get_alias_seq
                0x0000000022067768        0x8 arch/arm/cpu/armv7/start.o
 .rel.text.fdtdec_get_chosen_prop
                0x0000000022067770        0x8 arch/arm/cpu/armv7/start.o
 .rel.text.fdtdec_prepare_fdt
                0x0000000022067778        0x8 arch/arm/cpu/armv7/start.o
 .rel.text.fdtdec_get_config_int
                0x0000000022067780        0x8 arch/arm/cpu/armv7/start.o
 .rel.text.fdtdec_get_config_string
                0x0000000022067788        0x8 arch/arm/cpu/armv7/start.o
 .rel.text.board_fdt_blob_setup
                0x0000000022067790        0x8 arch/arm/cpu/armv7/start.o
 .rel.text.fdtdec_setup
                0x0000000022067798        0x8 arch/arm/cpu/armv7/start.o
 .rel.text.match_string
                0x00000000220677a0        0x8 arch/arm/cpu/armv7/start.o
 .rel.text.match_entry
                0x00000000220677a8        0x8 arch/arm/cpu/armv7/start.o
 .rel.text.hcreate_r
                0x00000000220677b0        0x8 arch/arm/cpu/armv7/start.o
 .rel.text.hdestroy_r
                0x00000000220677b8        0x8 arch/arm/cpu/armv7/start.o
 .rel.text.hmatch_r
                0x00000000220677c0        0x8 arch/arm/cpu/armv7/start.o
 .rel.text.hsearch_r
                0x00000000220677c8        0x8 arch/arm/cpu/armv7/start.o
 .rel.text.hdelete_r
                0x00000000220677d0        0x8 arch/arm/cpu/armv7/start.o
 .rel.text.hexport_r
                0x00000000220677d8       0x18 arch/arm/cpu/armv7/start.o
 .rel.text.himport_r
                0x00000000220677f0       0x20 arch/arm/cpu/armv7/start.o
 .rel.text.display_options_get_banner_priv
                0x0000000022067810       0x28 arch/arm/cpu/armv7/start.o
 .rel.text.display_options
                0x0000000022067838        0x8 arch/arm/cpu/armv7/start.o
 .rel.text.print_size
                0x0000000022067840       0x28 arch/arm/cpu/armv7/start.o
 .rel.text.print_buffer
                0x0000000022067868       0x28 arch/arm/cpu/armv7/start.o
 .rel.text.crc32_no_comp
                0x0000000022067890        0x8 arch/arm/cpu/armv7/start.o
 .rel.text.hang
                0x0000000022067898        0x8 arch/arm/cpu/armv7/start.o
 .rel.text.skip_spaces
                0x00000000220678a0        0x8 arch/arm/cpu/armv7/start.o
 .rel.text.strim
                0x00000000220678a8        0x8 arch/arm/cpu/armv7/start.o
 .rel.text.emit
                0x00000000220678b0        0x8 arch/arm/cpu/armv7/start.o
 .rel.text.store_char_in_data
                0x00000000220678b8        0x8 arch/arm/cpu/armv7/start.o
 .rel.text.match
                0x00000000220678c0       0x98 arch/arm/cpu/armv7/start.o
 .rel.text.quantifier
                0x0000000022067958        0x8 arch/arm/cpu/armv7/start.o
 .rel.text.fixup_branch
                0x0000000022067960        0x8 arch/arm/cpu/armv7/start.o
 .rel.text.compile
                0x0000000022067968       0x28 arch/arm/cpu/armv7/start.o
 .rel.text.slre_compile
                0x0000000022067990        0x8 arch/arm/cpu/armv7/start.o
 .rel.text.strncasecmp
                0x0000000022067998        0x8 arch/arm/cpu/armv7/start.o
 .rel.text.uuid_str_valid
                0x00000000220679a0        0x8 arch/arm/cpu/armv7/start.o
 .rel.text.uuid_bin_to_str
                0x00000000220679a8       0x18 arch/arm/cpu/armv7/start.o
 .rel.text.number
                0x00000000220679c0        0x8 arch/arm/cpu/armv7/start.o
 .rel.text.string16
                0x00000000220679c8        0x8 arch/arm/cpu/armv7/start.o
 .rel.text.string
                0x00000000220679d0        0x8 arch/arm/cpu/armv7/start.o
 .rel.text.vsnprintf_internal
                0x00000000220679d8       0x10 arch/arm/cpu/armv7/start.o
 .rel.text.simple_itoa
                0x00000000220679e8        0x8 arch/arm/cpu/armv7/start.o
 .rel.text._parse_integer_fixup_radix
                0x00000000220679f0        0x8 arch/arm/cpu/armv7/start.o
 .rel.text.simple_strtoul
                0x00000000220679f8        0x8 arch/arm/cpu/armv7/start.o
 .rel.text.simple_strtoull
                0x0000000022067a00        0x8 arch/arm/cpu/armv7/start.o
 .rel.text.trailing_strtoln
                0x0000000022067a08        0x8 arch/arm/cpu/armv7/start.o
 .rel.text.strmhz
                0x0000000022067a10       0x10 arch/arm/cpu/armv7/start.o
 .rel.rodata.driver_ops
                0x0000000022067a20       0x18 arch/arm/cpu/armv7/start.o
 .rel.rodata.efi_blk_ops
                0x0000000022067a38       0x10 arch/arm/cpu/armv7/start.o
 .rel.rodata.efi_boot_services
                0x0000000022067a48      0x158 arch/arm/cpu/armv7/start.o
 .rel.rodata.efi_runtime_detach_list
                0x0000000022067ba0       0x80 arch/arm/cpu/armv7/start.o
 .rel.rodata.efi_device_path_to_text
                0x0000000022067c20       0x10 arch/arm/cpu/armv7/start.o
 .rel.rodata.efi_device_path_utilities
                0x0000000022067c30       0x40 arch/arm/cpu/armv7/start.o
 .rel.rodata.efi_file_handle_protocol
                0x0000000022067c70       0x50 arch/arm/cpu/armv7/start.o
 .rel.rodata.fdt_errtable
                0x0000000022067cc0       0x88 arch/arm/cpu/armv7/start.o
 .rel.rodata.smbios_write_funcs
                0x0000000022067d48       0x38 arch/arm/cpu/armv7/start.o
 .rel.u_boot_list_2_uclass_2_efi
                0x0000000022067d80       0x18 arch/arm/cpu/armv7/start.o
 .rel.u_boot_list_2_driver_2_efi_blk
                0x0000000022067d98       0x10 arch/arm/cpu/armv7/start.o
 .rel.u_boot_list_2_driver_2_efi_block
                0x0000000022067da8       0x10 arch/arm/cpu/armv7/start.o
 .rel.data.efi_events
                0x0000000022067db8       0x10 arch/arm/cpu/armv7/start.o
 .rel.data.efi_obj_list
                0x0000000022067dc8       0x10 arch/arm/cpu/armv7/start.o
 .rel.data.efi_runtime_mmio
                0x0000000022067dd8       0x10 arch/arm/cpu/armv7/start.o
 .rel.data.efi_con_in
                0x0000000022067de8       0x10 arch/arm/cpu/armv7/start.o
 .rel.data.efi_con_out
                0x0000000022067df8       0x50 arch/arm/cpu/armv7/start.o
 .rel.data.efi_mem
                0x0000000022067e48       0x10 arch/arm/cpu/armv7/start.o
 .rel.text.arp_init
                0x0000000022067e58       0x30 arch/arm/cpu/armv7/start.o
 .rel.text.arp_raw_request
                0x0000000022067e88       0x18 arch/arm/cpu/armv7/start.o
 .rel.text.arp_request
                0x0000000022067ea0       0x38 arch/arm/cpu/armv7/start.o
 .rel.text.arp_timeout_check
                0x0000000022067ed8       0x28 arch/arm/cpu/armv7/start.o
 .rel.text.arp_receive
                0x0000000022067f00       0x40 arch/arm/cpu/armv7/start.o
 .rel.text.dhcp_extended
                0x0000000022067f40       0x28 arch/arm/cpu/armv7/start.o
 .rel.text.dhcp_process_options
                0x0000000022067f68       0x70 arch/arm/cpu/armv7/start.o
 .rel.text.dhcp_packet_process_options
                0x0000000022067fd8        0x8 arch/arm/cpu/armv7/start.o
 .rel.text.dhcp_handler
                0x0000000022067fe0       0x98 arch/arm/cpu/armv7/start.o
 .rel.text.bootp_reset
                0x0000000022068078       0x20 arch/arm/cpu/armv7/start.o
 .rel.text.bootp_request
                0x0000000022068098       0x78 arch/arm/cpu/armv7/start.o
 .rel.text.bootp_timeout_handler
                0x0000000022068110       0x28 arch/arm/cpu/armv7/start.o
 .rel.text.eth_post_probe
                0x0000000022068138       0x30 arch/arm/cpu/armv7/start.o
 .rel.text.eth_write_hwaddr
                0x0000000022068168       0x10 arch/arm/cpu/armv7/start.o
 .rel.text.eth_post_bind
                0x0000000022068178        0x8 arch/arm/cpu/armv7/start.o
 .rel.text.eth_get_dev
                0x0000000022068180        0x8 arch/arm/cpu/armv7/start.o
 .rel.text.eth_set_dev
                0x0000000022068188        0x8 arch/arm/cpu/armv7/start.o
 .rel.text.eth_get_dev_by_name
                0x0000000022068190        0x8 arch/arm/cpu/armv7/start.o
 .rel.text.eth_init
                0x0000000022068198       0x28 arch/arm/cpu/armv7/start.o
 .rel.text.eth_initialize
                0x00000000220681c0       0x28 arch/arm/cpu/armv7/start.o
 .rel.text.eth_env_get_enetaddr_by_index
                0x00000000220681e8       0x10 arch/arm/cpu/armv7/start.o
 .rel.text.eth_env_set_enetaddr_by_index
                0x00000000220681f8       0x10 arch/arm/cpu/armv7/start.o
 .rel.text.eth_mac_skip
                0x0000000022068208       0x10 arch/arm/cpu/armv7/start.o
 .rel.text.eth_get_name
                0x0000000022068218        0x8 arch/arm/cpu/armv7/start.o
 .rel.text.eth_current_changed
                0x0000000022068220       0x18 arch/arm/cpu/armv7/start.o
 .rel.text.eth_try_another
                0x0000000022068238       0x20 arch/arm/cpu/armv7/start.o
 .rel.text.eth_set_current
                0x0000000022068258       0x20 arch/arm/cpu/armv7/start.o
 .rel.text.net_clear_handlers
                0x0000000022068278       0x20 arch/arm/cpu/armv7/start.o
 .rel.text.start_again_timeout_handler
                0x0000000022068298        0x8 arch/arm/cpu/armv7/start.o
 .rel.text.on_ipaddr
                0x00000000220682a0        0x8 arch/arm/cpu/armv7/start.o
 .rel.text.on_gatewayip
                0x00000000220682a8        0x8 arch/arm/cpu/armv7/start.o
 .rel.text.on_netmask
                0x00000000220682b0        0x8 arch/arm/cpu/armv7/start.o
 .rel.text.on_serverip
                0x00000000220682b8        0x8 arch/arm/cpu/armv7/start.o
 .rel.text.net_init_loop.part.0
                0x00000000220682c0        0x8 arch/arm/cpu/armv7/start.o
 .rel.text.net_auto_load
                0x00000000220682c8       0x18 arch/arm/cpu/armv7/start.o
 .rel.text.net_init
                0x00000000220682e0       0x20 arch/arm/cpu/armv7/start.o
 .rel.text.net_start_again
                0x0000000022068300       0x78 arch/arm/cpu/armv7/start.o
 .rel.text.net_loop
                0x0000000022068378      0x180 arch/arm/cpu/armv7/start.o
 .rel.text.net_set_udp_handler
                0x00000000220684f8       0x10 arch/arm/cpu/armv7/start.o
 .rel.text.net_get_arp_handler
                0x0000000022068508        0x8 arch/arm/cpu/armv7/start.o
 .rel.text.net_set_timeout_handler
                0x0000000022068510       0x18 arch/arm/cpu/armv7/start.o
 .rel.text.net_process_received_packet
                0x0000000022068528       0x40 arch/arm/cpu/armv7/start.o
 .rel.text.net_eth_hdr_size
                0x0000000022068568        0x8 arch/arm/cpu/armv7/start.o
 .rel.text.net_set_ether
                0x0000000022068570       0x10 arch/arm/cpu/armv7/start.o
 .rel.text.net_update_ether
                0x0000000022068580        0x8 arch/arm/cpu/armv7/start.o
 .rel.text.net_set_ip_header
                0x0000000022068588        0x8 arch/arm/cpu/armv7/start.o
 .rel.text.net_set_udp_header
                0x0000000022068590        0x8 arch/arm/cpu/armv7/start.o
 .rel.text.net_send_udp_packet
                0x0000000022068598       0x40 arch/arm/cpu/armv7/start.o
 .rel.text.on_bootfile
                0x00000000220685d8        0x8 arch/arm/cpu/armv7/start.o
 .rel.text.ip_to_string
                0x00000000220685e0        0x8 arch/arm/cpu/armv7/start.o
 .rel.text.on_nvlan
                0x00000000220685e8        0x8 arch/arm/cpu/armv7/start.o
 .rel.text.on_vlan
                0x00000000220685f0        0x8 arch/arm/cpu/armv7/start.o
 .rel.text.rpc_lookup_reply
                0x00000000220685f8       0x18 arch/arm/cpu/armv7/start.o
 .rel.text.nfs_mount_reply
                0x0000000022068610       0x18 arch/arm/cpu/armv7/start.o
 .rel.text.nfs_umountall_reply
                0x0000000022068628       0x18 arch/arm/cpu/armv7/start.o
 .rel.text.nfs_lookup_reply
                0x0000000022068640       0x30 arch/arm/cpu/armv7/start.o
 .rel.text.nfs_readlink_reply
                0x0000000022068670       0x20 arch/arm/cpu/armv7/start.o
 .rel.text.rpc_req
                0x0000000022068690       0x40 arch/arm/cpu/armv7/start.o
 .rel.text.nfs_read_req
                0x00000000220686d0       0x18 arch/arm/cpu/armv7/start.o
 .rel.text.nfs_read_reply.isra.0
                0x00000000220686e8       0x30 arch/arm/cpu/armv7/start.o
 .rel.text.nfs_readlink_req
                0x0000000022068718       0x18 arch/arm/cpu/armv7/start.o
 .rel.text.nfs_lookup_req
                0x0000000022068730       0x10 arch/arm/cpu/armv7/start.o
 .rel.text.nfs_umountall_req
                0x0000000022068740       0x10 arch/arm/cpu/armv7/start.o
 .rel.text.nfs_send
                0x0000000022068750       0x68 arch/arm/cpu/armv7/start.o
 .rel.text.nfs_handler
                0x00000000220687b8       0xa8 arch/arm/cpu/armv7/start.o
 .rel.text.nfs_timeout_handler
                0x0000000022068860       0x20 arch/arm/cpu/armv7/start.o
 .rel.text.nfs_start
                0x0000000022068880       0x88 arch/arm/cpu/armv7/start.o
 .rel.text.ping_timeout_handler
                0x0000000022068908        0x8 arch/arm/cpu/armv7/start.o
 .rel.text.ping_start
                0x0000000022068910       0x58 arch/arm/cpu/armv7/start.o
 .rel.text.ping_receive
                0x0000000022068968       0x20 arch/arm/cpu/armv7/start.o
 .rel.text.tftp_send
                0x0000000022068988       0xb8 arch/arm/cpu/armv7/start.o
 .rel.text.tftp_handler
                0x0000000022068a40       0xd0 arch/arm/cpu/armv7/start.o
 .rel.text.tftp_timeout_handler
                0x0000000022068b10       0x40 arch/arm/cpu/armv7/start.o
 .rel.text.tftp_start
                0x0000000022068b50      0x148 arch/arm/cpu/armv7/start.o
 .rel.u_boot_list_2_env_clbk_2_ethaddr
                0x0000000022068c98       0x10 arch/arm/cpu/armv7/start.o
 .rel.u_boot_list_2_uclass_2_eth
                0x0000000022068ca8       0x28 arch/arm/cpu/armv7/start.o
 .rel.u_boot_list_2_env_clbk_2_bootfile
                0x0000000022068cd0       0x10 arch/arm/cpu/armv7/start.o
 .rel.u_boot_list_2_env_clbk_2_gatewayip
                0x0000000022068ce0       0x10 arch/arm/cpu/armv7/start.o
 .rel.u_boot_list_2_env_clbk_2_ipaddr
                0x0000000022068cf0       0x10 arch/arm/cpu/armv7/start.o
 .rel.u_boot_list_2_env_clbk_2_netmask
                0x0000000022068d00       0x10 arch/arm/cpu/armv7/start.o
 .rel.u_boot_list_2_env_clbk_2_nvlan
                0x0000000022068d10       0x10 arch/arm/cpu/armv7/start.o
 .rel.u_boot_list_2_env_clbk_2_serverip
                0x0000000022068d20       0x10 arch/arm/cpu/armv7/start.o
 .rel.u_boot_list_2_env_clbk_2_vlan
                0x0000000022068d30       0x10 arch/arm/cpu/armv7/start.o
 .rel.text.do_dm
                0x0000000022068d40        0x8 arch/arm/cpu/armv7/start.o
 .rel.data.test_commands
                0x0000000022068d48       0x60 arch/arm/cpu/armv7/start.o
 .rel.u_boot_list_2_cmd_2_dm
                0x0000000022068da8       0x20 arch/arm/cpu/armv7/start.o

.rel_dyn_end    0x0000000022068dc8        0x0
 *(.__rel_dyn_end)
 .__rel_dyn_end
                0x0000000022068dc8        0x0 arch/arm/lib/built-in.o

.end            0x0000000022068dc8        0x0
 *(.__end)
 .__end         0x0000000022068dc8        0x0 arch/arm/lib/built-in.o
                0x0000000022068dc8                _image_binary_end = .
                0x0000000022069000                . = ALIGN (0x1000)

.mmutable
 *(.mmutable)

.bss_start      0x000000002205f128        0x0
 *(.__bss_start)
 .__bss_start   0x000000002205f128        0x0 arch/arm/lib/built-in.o
                0x000000002205f128                __bss_start
                0x000000002205f128                __bss_base = .

.bss            0x000000002205f128    0x35bec
 *(.bss*)
 .bss.bootefi_device_path
                0x000000002205f128        0x4 cmd/built-in.o
 .bss.bootefi_image_path
                0x000000002205f12c        0x4 cmd/built-in.o
 .bss.data.8418
                0x000000002205f130      0x400 cmd/built-in.o
 .bss.working_fdt
                0x000000002205f530        0x4 cmd/built-in.o
                0x000000002205f530                working_fdt
 .bss.i2c_cur_bus
                0x000000002205f534        0x4 cmd/built-in.o
 .bss.i2c_dp_last_addr
                0x000000002205f538        0x4 cmd/built-in.o
 .bss.i2c_dp_last_alen
                0x000000002205f53c        0x4 cmd/built-in.o
 .bss.i2c_dp_last_chip
                0x000000002205f540        0x4 cmd/built-in.o
 .bss.i2c_mm_last_addr
                0x000000002205f544        0x4 cmd/built-in.o
 .bss.i2c_mm_last_alen
                0x000000002205f548        0x4 cmd/built-in.o
 .bss.i2c_mm_last_chip
                0x000000002205f54c        0x4 cmd/built-in.o
 .bss.a_b       0x000000002205f550       0x18 cmd/built-in.o
 .bss.bin_start_address
                0x000000002205f568        0x4 cmd/built-in.o
 .bss.his_eol   0x000000002205f56c        0x1 cmd/built-in.o
 .bss.his_pad_char
                0x000000002205f56d        0x1 cmd/built-in.o
 *fill*         0x000000002205f56e        0x2 
 .bss.his_pad_count
                0x000000002205f570        0x4 cmd/built-in.o
 .bss.his_quote
                0x000000002205f574        0x1 cmd/built-in.o
 *fill*         0x000000002205f575        0x3 
 .bss.k_data_escape
                0x000000002205f578        0x4 cmd/built-in.o
 .bss.k_data_escape_saved
                0x000000002205f57c        0x4 cmd/built-in.o
 .bss.os_data_addr
                0x000000002205f580        0x4 cmd/built-in.o
 .bss.os_data_addr_saved
                0x000000002205f584        0x4 cmd/built-in.o
 .bss.os_data_char
                0x000000002205f588        0x4 cmd/built-in.o
 .bss.os_data_init
                0x000000002205f58c        0x4 cmd/built-in.o
 .bss.os_data_state
                0x000000002205f590        0x4 cmd/built-in.o
 .bss.os_data_state_saved
                0x000000002205f594        0x4 cmd/built-in.o
 .bss.send_parms
                0x000000002205f598       0x14 cmd/built-in.o
 .bss.send_ptr  0x000000002205f5ac        0x4 cmd/built-in.o
 .bss.base_address
                0x000000002205f5b0        0x4 cmd/built-in.o
 .bss.dp_last_addr
                0x000000002205f5b4        0x4 cmd/built-in.o
 .bss.dp_last_size
                0x000000002205f5b8        0x4 cmd/built-in.o
 .bss.mm_last_addr
                0x000000002205f5bc        0x4 cmd/built-in.o
 .bss.mm_last_size
                0x000000002205f5c0        0x4 cmd/built-in.o
 .bss.flash     0x000000002205f5c4        0x4 cmd/built-in.o
 .bss.buf.8743  0x000000002205f5c8       0x28 common/built-in.o
 .bss.do_repeat
                0x000000002205f5f0        0x4 common/built-in.o
 .bss.flag_repeat
                0x000000002205f5f4        0x4 common/built-in.o
 .bss.ifs       0x000000002205f5f8        0x4 common/built-in.o
 .bss.last_return_code
                0x000000002205f5fc        0x4 common/built-in.o
 .bss.map       0x000000002205f600      0x100 common/built-in.o
 .bss.the_command.8543
                0x000000002205f700      0x101 common/built-in.o
 *fill*         0x000000002205f801        0x3 
 .bss.top_vars  0x000000002205f804        0x4 common/built-in.o
 .bss.stored_bootdelay
                0x000000002205f808        0x4 common/built-in.o
 .bss.monitor_flash_len
                0x000000002205f80c        0x4 common/built-in.o
                0x000000002205f80c                monitor_flash_len
 .bss.images    0x000000002205f810      0x164 common/built-in.o
                0x000000002205f810                images
 .bss.current_mii
                0x000000002205f974        0x4 common/built-in.o
 .bss.mii_devs  0x000000002205f978        0x8 common/built-in.o
 .bss.usb_started
                0x000000002205f980        0x1 common/built-in.o
                0x000000002205f980                usb_started
 *fill*         0x000000002205f981        0x3 
 .bss.running.10722
                0x000000002205f984        0x4 common/built-in.o
 .bss.CBWTag    0x000000002205f988        0x4 common/built-in.o
 *fill*         0x000000002205f98c       0x34 
 .bss.usb_ccb   0x000000002205f9c0       0xc0 common/built-in.o
 .bss.usb_max_devs
                0x000000002205fa80        0x4 common/built-in.o
 .bss.console_buffer
                0x000000002205fa84      0x101 common/built-in.o
                0x000000002205fa84                console_buffer
 *fill*         0x000000002205fb85        0x3 
 .bss.hist_add_idx
                0x000000002205fb88        0x4 common/built-in.o
 .bss.hist_lines
                0x000000002205fb8c     0x1414 common/built-in.o
 .bss.hist_list
                0x0000000022060fa0       0x50 common/built-in.o
 .bss.hist_max  0x0000000022060ff0        0x4 common/built-in.o
 .bss.hist_num  0x0000000022060ff4        0x4 common/built-in.o
 .bss.initted.8409
                0x0000000022060ff8        0x4 common/built-in.o
 .bss.ctrlc_disabled
                0x0000000022060ffc        0x4 common/built-in.o
 .bss.ctrlc_was_pressed
                0x0000000022061000        0x4 common/built-in.o
 .bss.current_mallinfo
                0x0000000022061004       0x28 common/built-in.o
 .bss.max_sbrked_mem
                0x000000002206102c        0x4 common/built-in.o
 .bss.max_total_mem
                0x0000000022061030        0x4 common/built-in.o
 .bss.mem_malloc_brk
                0x0000000022061034        0x4 common/built-in.o
                0x0000000022061034                mem_malloc_brk
 .bss.mem_malloc_end
                0x0000000022061038        0x4 common/built-in.o
                0x0000000022061038                mem_malloc_end
 .bss.mem_malloc_start
                0x000000002206103c        0x4 common/built-in.o
                0x000000002206103c                mem_malloc_start
 .bss.top_pad   0x0000000022061040        0x4 common/built-in.o
 .bss.devs      0x0000000022061044       0x4c common/built-in.o
 .bss.stdio_devices
                0x0000000022061090        0xc common/built-in.o
                0x0000000022061090                stdio_devices
 .bss.tmp_buf   0x000000002206109c      0x101 common/built-in.o
 .bss.tmp_buf.8302
                0x000000002206119d      0x200 common/built-in.o
 *fill*         0x000000002206139d        0x3 
 .bss.xyz       0x00000000220613a0      0x434 common/built-in.o
 .bss.initialized.10708
                0x00000000220617d4        0x4 drivers/built-in.o
 .bss.aligned_buffer
                0x00000000220617d8        0x4 drivers/built-in.o
                0x00000000220617d8                aligned_buffer
 .bss.asynch_allowed
                0x00000000220617dc        0x1 drivers/usb/host/built-in.o
 *fill*         0x00000000220617dd        0x3 
 .bss.callback_list
                0x00000000220617e0        0x4 env/built-in.o
 .bss.flags_list
                0x00000000220617e4        0x4 env/built-in.o
 .bss.fs_dev_desc
                0x00000000220617e8        0x4 fs/built-in.o
 .bss.fs_dev_part
                0x00000000220617ec        0x4 fs/built-in.o
 .bss.fs_partition
                0x00000000220617f0       0x54 fs/built-in.o
 .bss.fs_type   0x0000000022061844        0x4 fs/built-in.o
 .bss.ext_fs    0x0000000022061848       0x48 fs/built-in.o
                0x0000000022061848                ext_fs
 .bss.ext4fs_file
                0x0000000022061890        0x4 fs/built-in.o
                0x0000000022061890                ext4fs_file
 .bss.ext4fs_indir1_block
                0x0000000022061894        0x4 fs/built-in.o
                0x0000000022061894                ext4fs_indir1_block
 .bss.ext4fs_indir1_size
                0x0000000022061898        0x4 fs/built-in.o
                0x0000000022061898                ext4fs_indir1_size
 .bss.ext4fs_indir2_block
                0x000000002206189c        0x4 fs/built-in.o
                0x000000002206189c                ext4fs_indir2_block
 .bss.ext4fs_indir2_size
                0x00000000220618a0        0x4 fs/built-in.o
                0x00000000220618a0                ext4fs_indir2_size
 .bss.ext4fs_indir3_block
                0x00000000220618a4        0x4 fs/built-in.o
                0x00000000220618a4                ext4fs_indir3_block
 .bss.ext4fs_indir3_size
                0x00000000220618a8        0x4 fs/built-in.o
                0x00000000220618a8                ext4fs_indir3_size
 .bss.ext4fs_root
                0x00000000220618ac        0x4 fs/built-in.o
                0x00000000220618ac                ext4fs_root
 .bss.symlinknest
                0x00000000220618b0        0x4 fs/built-in.o
 .bss.part_info
                0x00000000220618b4        0x4 fs/built-in.o
 .bss.part_offset
                0x00000000220618b8        0x4 fs/built-in.o
                0x00000000220618b8                part_offset
 .bss.cur_dev   0x00000000220618bc        0x4 fs/built-in.o
 .bss.cur_part_info
                0x00000000220618c0       0x54 fs/built-in.o
 .bss.dir_curclust
                0x0000000022061914        0x4 fs/built-in.o
 *fill*         0x0000000022061918       0x28 
 .bss.do_fat_read_at_block
                0x0000000022061940    0x10000 fs/built-in.o
                0x0000000022061940                do_fat_read_at_block
 .bss.empty_dentptr
                0x0000000022071940        0x4 fs/built-in.o
 *fill*         0x0000000022071944       0x3c 
 .bss.get_contents_vfatname_block
                0x0000000022071980    0x10000 fs/built-in.o
                0x0000000022071980                get_contents_vfatname_block
 .bss.get_dentfromdir_block
                0x0000000022081980    0x10000 fs/built-in.o
                0x0000000022081980                get_dentfromdir_block
 .bss.num_of_fats
                0x0000000022091980        0x1 fs/built-in.o
 *fill*         0x0000000022091981        0x3 
 .bss.total_sector
                0x0000000022091984        0x4 fs/built-in.o
 .bss.app_gd    0x0000000022091988        0x4 lib/built-in.o
 .bss.efi_gd    0x000000002209198c        0x4 lib/built-in.o
 .bss.entry_count
                0x0000000022091990        0x4 lib/built-in.o
 *fill*         0x0000000022091994        0x4 
 .bss.mono.10243
                0x0000000022091998        0x8 lib/built-in.o
 .bss.ret.10147
                0x00000000220919a0        0x4 lib/built-in.o
 .bss.console_timer_event
                0x00000000220919a4        0x4 lib/built-in.o
 .bss.rs        0x00000000220919a8        0x4 lib/built-in.o
 .bss.watchdog_timer_event
                0x00000000220919ac        0x4 lib/built-in.o
 .bss.dhcp_ack  0x00000000220919b0        0x4 lib/built-in.o
 .bss.network_timer_event
                0x00000000220919b4        0x4 lib/built-in.o
 .bss.new_rx_packet
                0x00000000220919b8        0x1 lib/built-in.o
 *fill*         0x00000000220919b9        0x3 
 .bss.new_tx_packet
                0x00000000220919bc        0x4 lib/built-in.o
 .bss.wait_for_packet
                0x00000000220919c0        0x4 lib/built-in.o
 .bss.errno     0x00000000220919c4        0x4 lib/built-in.o
                0x00000000220919c4                errno
 .bss.local.9878
                0x00000000220919c8       0x16 lib/built-in.o
 *fill*         0x00000000220919de        0x2 
 .bss.arp_tx_packet
                0x00000000220919e0        0x4 net/built-in.o
 .bss.arp_tx_packet_buf
                0x00000000220919e4      0x640 net/built-in.o
 .bss.arp_wait_packet_ethaddr
                0x0000000022092024        0x4 net/built-in.o
                0x0000000022092024                arp_wait_packet_ethaddr
 .bss.arp_wait_timer_start
                0x0000000022092028        0x4 net/built-in.o
                0x0000000022092028                arp_wait_timer_start
 .bss.arp_wait_try
                0x000000002209202c        0x4 net/built-in.o
                0x000000002209202c                arp_wait_try
 .bss.arp_wait_tx_packet_size
                0x0000000022092030        0x4 net/built-in.o
                0x0000000022092030                arp_wait_tx_packet_size
 .bss.net_arp_wait_packet_ip
                0x0000000022092034        0x4 net/built-in.o
                0x0000000022092034                net_arp_wait_packet_ip
 .bss.net_arp_wait_reply_ip
                0x0000000022092038        0x4 net/built-in.o
 .bss.bootp_ids
                0x000000002209203c       0x10 net/built-in.o
                0x000000002209203c                bootp_ids
 .bss.bootp_num_ids
                0x000000002209204c        0x4 net/built-in.o
                0x000000002209204c                bootp_num_ids
 .bss.bootp_start
                0x0000000022092050        0x4 net/built-in.o
                0x0000000022092050                bootp_start
 .bss.bootp_timeout
                0x0000000022092054        0x4 net/built-in.o
                0x0000000022092054                bootp_timeout
 .bss.bootp_try
                0x0000000022092058        0x4 net/built-in.o
                0x0000000022092058                bootp_try
 .bss.dhcp_leasetime
                0x000000002209205c        0x4 net/built-in.o
 .bss.dhcp_option_overload
                0x0000000022092060        0x1 net/built-in.o
 *fill*         0x0000000022092061        0x3 
 .bss.dhcp_server_ip
                0x0000000022092064        0x4 net/built-in.o
 .bss.dhcp_state
                0x0000000022092068        0x4 net/built-in.o
 .bss.net_hostname
                0x000000002209206c       0x20 net/built-in.o
                0x000000002209206c                net_hostname
 .bss.net_nis_domain
                0x000000002209208c       0x20 net/built-in.o
                0x000000002209208c                net_nis_domain
 .bss.net_root_path
                0x00000000220920ac       0x40 net/built-in.o
                0x00000000220920ac                net_root_path
 .bss.time_taken_max
                0x00000000220920ec        0x4 net/built-in.o
 .bss.eth_errno
                0x00000000220920f0        0x4 net/built-in.o
 .bss.act.10413
                0x00000000220920f4        0x4 net/built-in.o
 .bss.env_changed_id.10414
                0x00000000220920f8        0x4 net/built-in.o
 .bss.first_failed.10408
                0x00000000220920fc        0x4 net/built-in.o
 .bss.arp_packet_handler
                0x0000000022092100        0x4 net/built-in.o
 .bss.net_boot_file_expected_size_in_blocks
                0x0000000022092104        0x4 net/built-in.o
                0x0000000022092104                net_boot_file_expected_size_in_blocks
 .bss.net_boot_file_name
                0x0000000022092108      0x400 net/built-in.o
                0x0000000022092108                net_boot_file_name
 .bss.net_boot_file_name_explicit
                0x0000000022092508        0x1 net/built-in.o
                0x0000000022092508                net_boot_file_name_explicit
 *fill*         0x0000000022092509        0x3 
 .bss.net_boot_file_size
                0x000000002209250c        0x4 net/built-in.o
                0x000000002209250c                net_boot_file_size
 .bss.net_dev_exists
                0x0000000022092510        0x4 net/built-in.o
 .bss.net_dns_server
                0x0000000022092514        0x4 net/built-in.o
                0x0000000022092514                net_dns_server
 .bss.net_ethaddr
                0x0000000022092518        0x6 net/built-in.o
                0x0000000022092518                net_ethaddr
 *fill*         0x000000002209251e        0x2 
 .bss.net_gateway
                0x0000000022092520        0x4 net/built-in.o
                0x0000000022092520                net_gateway
 .bss.net_ip    0x0000000022092524        0x4 net/built-in.o
                0x0000000022092524                net_ip
 .bss.net_ip_id
                0x0000000022092528        0x4 net/built-in.o
 .bss.net_netmask
                0x000000002209252c        0x4 net/built-in.o
                0x000000002209252c                net_netmask
 .bss.net_null_ethaddr
                0x0000000022092530        0x6 net/built-in.o
                0x0000000022092530                net_null_ethaddr
 .bss.net_pkt_buf
                0x0000000022092536     0x1e40 net/built-in.o
 *fill*         0x0000000022094376        0x2 
 .bss.net_restart_wrap
                0x0000000022094378        0x4 net/built-in.o
                0x0000000022094378                net_restart_wrap
 .bss.net_restarted
                0x000000002209437c        0x4 net/built-in.o
 .bss.net_rx_packet
                0x0000000022094380        0x4 net/built-in.o
                0x0000000022094380                net_rx_packet
 .bss.net_rx_packet_len
                0x0000000022094384        0x4 net/built-in.o
                0x0000000022094384                net_rx_packet_len
 .bss.net_rx_packets
                0x0000000022094388       0x10 net/built-in.o
                0x0000000022094388                net_rx_packets
 .bss.net_server_ethaddr
                0x0000000022094398        0x6 net/built-in.o
                0x0000000022094398                net_server_ethaddr
 *fill*         0x000000002209439e        0x2 
 .bss.net_server_ip
                0x00000000220943a0        0x4 net/built-in.o
                0x00000000220943a0                net_server_ip
 .bss.net_state
                0x00000000220943a4        0x4 net/built-in.o
                0x00000000220943a4                net_state
 .bss.net_try_count
                0x00000000220943a8        0x4 net/built-in.o
 .bss.net_tx_packet
                0x00000000220943ac        0x4 net/built-in.o
                0x00000000220943ac                net_tx_packet
 .bss.push_packet
                0x00000000220943b0        0x4 net/built-in.o
                0x00000000220943b0                push_packet
 .bss.time_delta
                0x00000000220943b4        0x4 net/built-in.o
 .bss.time_handler
                0x00000000220943b8        0x4 net/built-in.o
 .bss.time_start
                0x00000000220943bc        0x8 net/built-in.o
 .bss.udp_packet_handler
                0x00000000220943c4        0x4 net/built-in.o
 .bss.dirfh     0x00000000220943c8       0x20 net/built-in.o
 .bss.filefh    0x00000000220943e8       0x40 net/built-in.o
 .bss.filefh3_length
                0x0000000022094428        0x4 net/built-in.o
 .bss.fs_mounted
                0x000000002209442c        0x4 net/built-in.o
 .bss.nfs_download_state
                0x0000000022094430        0x4 net/built-in.o
 .bss.nfs_filename
                0x0000000022094434        0x4 net/built-in.o
 .bss.nfs_len   0x0000000022094438        0x4 net/built-in.o
 .bss.nfs_our_port
                0x000000002209443c        0x4 net/built-in.o
 .bss.nfs_path  0x0000000022094440        0x4 net/built-in.o
 .bss.nfs_path_buff
                0x0000000022094444      0x800 net/built-in.o
 .bss.nfs_server_ip
                0x0000000022094c44        0x4 net/built-in.o
 .bss.nfs_server_mount_port
                0x0000000022094c48        0x4 net/built-in.o
 .bss.nfs_server_port
                0x0000000022094c4c        0x4 net/built-in.o
 .bss.nfs_state
                0x0000000022094c50        0x4 net/built-in.o
 .bss.nfs_timeout_count
                0x0000000022094c54        0x4 net/built-in.o
 .bss.rpc_id    0x0000000022094c58        0x4 net/built-in.o
 .bss.net_ping_ip
                0x0000000022094c5c        0x4 net/built-in.o
                0x0000000022094c5c                net_ping_ip
 .bss.ping_seq_number
                0x0000000022094c60        0x2 net/built-in.o
 .bss.default_filename
                0x0000000022094c62        0xd net/built-in.o
 *fill*         0x0000000022094c6f        0x1 
 .bss.tftp_block_wrap
                0x0000000022094c70        0x4 net/built-in.o
 .bss.tftp_block_wrap_offset
                0x0000000022094c74        0x4 net/built-in.o
 .bss.tftp_cur_block
                0x0000000022094c78        0x4 net/built-in.o
 .bss.tftp_filename
                0x0000000022094c7c       0x80 net/built-in.o
 .bss.tftp_our_port
                0x0000000022094cfc        0x4 net/built-in.o
 .bss.tftp_prev_block
                0x0000000022094d00        0x4 net/built-in.o
 .bss.tftp_remote_ip
                0x0000000022094d04        0x4 net/built-in.o
 .bss.tftp_remote_port
                0x0000000022094d08        0x4 net/built-in.o
 .bss.tftp_state
                0x0000000022094d0c        0x4 net/built-in.o
 .bss.timeout_count
                0x0000000022094d10        0x4 net/built-in.o
                0x0000000022094d14                . = ALIGN (0x4)
                0x0000000022094d14                __bss_limit = .

.bss_end        0x0000000022094d14        0x0
 *(.__bss_end)
 .__bss_end     0x0000000022094d14        0x0 arch/arm/lib/built-in.o
                0x0000000022094d14                __bss_end

.dynsym         0x0000000022068dc8       0x30
 *(.dynsym)
 .dynsym        0x0000000022068dc8       0x30 arch/arm/cpu/armv7/start.o

.dynbss         0x0000000022068df8        0x0
 *(.dynbss)
 .dynbss        0x0000000022068df8        0x0 arch/arm/cpu/armv7/start.o

.dynstr         0x0000000022068df8        0x1
 *(.dynstr*)
 .dynstr        0x0000000022068df8        0x1 arch/arm/cpu/armv7/start.o

.dynamic        0x0000000022068dfc       0x90
 *(.dynamic*)
 .dynamic       0x0000000022068dfc       0x90 arch/arm/cpu/armv7/start.o
                0x0000000022068dfc                _DYNAMIC

.plt            0x0000000022068e8c        0x0
 *(.plt*)
 .plt           0x0000000022068e8c        0x0 arch/arm/cpu/armv7/start.o

.interp
 *(.interp*)

.gnu.hash       0x0000000022068e8c       0x18
 *(.gnu.hash)
 .gnu.hash      0x0000000022068e8c       0x18 arch/arm/cpu/armv7/start.o

.gnu            0x0000000022068ea4        0x0
 *(.gnu*)
 .gnu.version_d
                0x0000000022068ea4        0x0 arch/arm/cpu/armv7/start.o
 .gnu.version   0x0000000022068ea4        0x0 arch/arm/cpu/armv7/start.o
 .gnu.version_r
                0x0000000022068ea4        0x0 arch/arm/cpu/armv7/start.o

.ARM.exidx
 *(.ARM.exidx*)

.gnu.linkonce.armexidx
 *(.gnu.linkonce.armexidx.*)
LOAD arch/arm/cpu/armv7/start.o
START GROUP
LOAD arch/arm/cpu/built-in.o
LOAD arch/arm/cpu/armv7/built-in.o
LOAD arch/arm/lib/built-in.o
LOAD arch/arm/mach-at91/built-in.o
LOAD board/atmel/common/built-in.o
LOAD board/atmel/rugged_board_a5d2x/built-in.o
LOAD cmd/built-in.o
LOAD common/built-in.o
LOAD disk/built-in.o
LOAD drivers/built-in.o
LOAD drivers/dma/built-in.o
LOAD drivers/gpio/built-in.o
LOAD drivers/i2c/built-in.o
LOAD drivers/mtd/built-in.o
LOAD drivers/mtd/onenand/built-in.o
LOAD drivers/mtd/spi/built-in.o
LOAD drivers/net/built-in.o
LOAD drivers/net/phy/built-in.o
LOAD drivers/pci/built-in.o
LOAD drivers/power/built-in.o
LOAD drivers/power/battery/built-in.o
LOAD drivers/power/domain/built-in.o
LOAD drivers/power/fuel_gauge/built-in.o
LOAD drivers/power/mfd/built-in.o
LOAD drivers/power/pmic/built-in.o
LOAD drivers/power/regulator/built-in.o
LOAD drivers/serial/built-in.o
LOAD drivers/spi/built-in.o
LOAD drivers/usb/common/built-in.o
LOAD drivers/usb/dwc3/built-in.o
LOAD drivers/usb/emul/built-in.o
LOAD drivers/usb/eth/built-in.o
LOAD drivers/usb/gadget/built-in.o
LOAD drivers/usb/gadget/udc/built-in.o
LOAD drivers/usb/host/built-in.o
LOAD drivers/usb/musb-new/built-in.o
LOAD drivers/usb/musb/built-in.o
LOAD drivers/usb/phy/built-in.o
LOAD drivers/usb/ulpi/built-in.o
LOAD env/built-in.o
LOAD fs/built-in.o
LOAD lib/built-in.o
LOAD net/built-in.o
LOAD test/built-in.o
LOAD test/dm/built-in.o
END GROUP
LOAD arch/arm/lib/eabi_compat.o
LOAD arch/arm/lib/lib.a
OUTPUT(u-boot elf32-littlearm)

.ARM.attributes
                0x0000000000000000       0x29
 .ARM.attributes
                0x0000000000000000       0x1d arch/arm/cpu/armv7/start.o
 .ARM.attributes
                0x000000000000001d       0x2b arch/arm/cpu/armv7/built-in.o
 .ARM.attributes
                0x0000000000000048       0x29 arch/arm/lib/built-in.o
 .ARM.attributes
                0x0000000000000071       0x2d arch/arm/mach-at91/built-in.o
 .ARM.attributes
                0x000000000000009e       0x2d board/atmel/common/built-in.o
 .ARM.attributes
                0x00000000000000cb       0x2d board/atmel/rugged_board_a5d2x/built-in.o
 .ARM.attributes
                0x00000000000000f8       0x2d cmd/built-in.o
 .ARM.attributes
                0x0000000000000125       0x2d common/built-in.o
 .ARM.attributes
                0x0000000000000152       0x2d disk/built-in.o
 .ARM.attributes
                0x000000000000017f       0x2d drivers/built-in.o
 .ARM.attributes
                0x00000000000001ac       0x2d drivers/gpio/built-in.o
 .ARM.attributes
                0x00000000000001d9       0x2d drivers/i2c/built-in.o
 .ARM.attributes
                0x0000000000000206       0x2d drivers/mtd/built-in.o
 .ARM.attributes
                0x0000000000000233       0x2d drivers/mtd/spi/built-in.o
 .ARM.attributes
                0x0000000000000260       0x2d drivers/net/built-in.o
 .ARM.attributes
                0x000000000000028d       0x2d drivers/net/phy/built-in.o
 .ARM.attributes
                0x00000000000002ba       0x2d drivers/serial/built-in.o
 .ARM.attributes
                0x00000000000002e7       0x2d drivers/spi/built-in.o
 .ARM.attributes
                0x0000000000000314       0x2d drivers/usb/host/built-in.o
 .ARM.attributes
                0x0000000000000341       0x2d env/built-in.o
 .ARM.attributes
                0x000000000000036e       0x2d fs/built-in.o
 .ARM.attributes
                0x000000000000039b       0x2d lib/built-in.o
 .ARM.attributes
                0x00000000000003c8       0x2d net/built-in.o
 .ARM.attributes
                0x00000000000003f5       0x2d test/dm/built-in.o
 .ARM.attributes
                0x0000000000000422       0x1d arch/arm/lib/lib.a(lib1funcs.o)
 .ARM.attributes
                0x000000000000043f       0x2d arch/arm/lib/lib.a(div0.o)

.comment        0x0000000000000000       0x11
 .comment       0x0000000000000000       0x11 arch/arm/cpu/armv7/built-in.o
                                         0x48 (size before relaxing)
 .comment       0x0000000000000011       0xb4 arch/arm/lib/built-in.o
 .comment       0x0000000000000011       0x5a arch/arm/mach-at91/built-in.o
 .comment       0x0000000000000011       0x24 board/atmel/common/built-in.o
 .comment       0x0000000000000011       0x12 board/atmel/rugged_board_a5d2x/built-in.o
 .comment       0x0000000000000011      0x252 cmd/built-in.o
 .comment       0x0000000000000011      0x21c common/built-in.o
 .comment       0x0000000000000011       0x24 disk/built-in.o
 .comment       0x0000000000000011      0x384 drivers/built-in.o
 .comment       0x0000000000000011       0x24 drivers/gpio/built-in.o
 .comment       0x0000000000000011       0x24 drivers/i2c/built-in.o
 .comment       0x0000000000000011       0x24 drivers/mtd/built-in.o
 .comment       0x0000000000000011       0x5a drivers/mtd/spi/built-in.o
 .comment       0x0000000000000011       0x12 drivers/net/built-in.o
 .comment       0x0000000000000011       0x12 drivers/net/phy/built-in.o
 .comment       0x0000000000000011       0x24 drivers/serial/built-in.o
 .comment       0x0000000000000011       0x36 drivers/spi/built-in.o
 .comment       0x0000000000000011       0x36 drivers/usb/host/built-in.o
 .comment       0x0000000000000011       0x6c env/built-in.o
 .comment       0x0000000000000011       0x6c fs/built-in.o
 .comment       0x0000000000000011      0x4b6 lib/built-in.o
 .comment       0x0000000000000011       0xa2 net/built-in.o
 .comment       0x0000000000000011       0x12 test/dm/built-in.o
 .comment       0x0000000000000011       0x12 arch/arm/lib/lib.a(div0.o)

.note.GNU-stack
                0x0000000000000000        0x0
 .note.GNU-stack
                0x0000000000000000        0x0 arch/arm/cpu/armv7/built-in.o
 .note.GNU-stack
                0x0000000000000000        0x0 arch/arm/lib/built-in.o
 .note.GNU-stack
                0x0000000000000000        0x0 arch/arm/mach-at91/built-in.o
 .note.GNU-stack
                0x0000000000000000        0x0 board/atmel/common/built-in.o
 .note.GNU-stack
                0x0000000000000000        0x0 board/atmel/rugged_board_a5d2x/built-in.o
 .note.GNU-stack
                0x0000000000000000        0x0 cmd/built-in.o
 .note.GNU-stack
                0x0000000000000000        0x0 common/built-in.o
 .note.GNU-stack
                0x0000000000000000        0x0 disk/built-in.o
 .note.GNU-stack
                0x0000000000000000        0x0 drivers/built-in.o
 .note.GNU-stack
                0x0000000000000000        0x0 drivers/gpio/built-in.o
 .note.GNU-stack
                0x0000000000000000        0x0 drivers/i2c/built-in.o
 .note.GNU-stack
                0x0000000000000000        0x0 drivers/mtd/built-in.o
 .note.GNU-stack
                0x0000000000000000        0x0 drivers/mtd/spi/built-in.o
 .note.GNU-stack
                0x0000000000000000        0x0 drivers/net/built-in.o
 .note.GNU-stack
                0x0000000000000000        0x0 drivers/net/phy/built-in.o
 .note.GNU-stack
                0x0000000000000000        0x0 drivers/serial/built-in.o
 .note.GNU-stack
                0x0000000000000000        0x0 drivers/spi/built-in.o
 .note.GNU-stack
                0x0000000000000000        0x0 drivers/usb/host/built-in.o
 .note.GNU-stack
                0x0000000000000000        0x0 env/built-in.o
 .note.GNU-stack
                0x0000000000000000        0x0 fs/built-in.o
 .note.GNU-stack
                0x0000000000000000        0x0 lib/built-in.o
 .note.GNU-stack
                0x0000000000000000        0x0 net/built-in.o
 .note.GNU-stack
                0x0000000000000000        0x0 test/dm/built-in.o
 .note.GNU-stack
                0x0000000000000000        0x0 arch/arm/lib/lib.a(div0.o)

.debug_line     0x0000000000000000    0x37caa
 .debug_line    0x0000000000000000       0x86 arch/arm/cpu/armv7/start.o
 .debug_line    0x0000000000000086      0x838 arch/arm/cpu/armv7/built-in.o
 .debug_line    0x00000000000008be     0x1811 arch/arm/lib/built-in.o
 .debug_line    0x00000000000020cf      0xbb1 arch/arm/mach-at91/built-in.o
 .debug_line    0x0000000000002c80      0x4fa board/atmel/common/built-in.o
 .debug_line    0x000000000000317a      0x2ab board/atmel/rugged_board_a5d2x/built-in.o
 .debug_line    0x0000000000003425     0x66e8 cmd/built-in.o
 .debug_line    0x0000000000009b0d     0x8e6f common/built-in.o
 .debug_line    0x000000000001297c      0x854 disk/built-in.o
 .debug_line    0x00000000000131d0     0xa9e0 drivers/built-in.o
 .debug_line    0x000000000001dbb0      0xc90 drivers/gpio/built-in.o
 .debug_line    0x000000000001e840      0x99a drivers/i2c/built-in.o
 .debug_line    0x000000000001f1da      0xa7d drivers/mtd/built-in.o
 .debug_line    0x000000000001fc57     0x148f drivers/mtd/spi/built-in.o
 .debug_line    0x00000000000210e6      0x6bd drivers/net/built-in.o
 .debug_line    0x00000000000217a3      0x79f drivers/net/phy/built-in.o
 .debug_line    0x0000000000021f42      0x870 drivers/serial/built-in.o
 .debug_line    0x00000000000227b2      0xd6e drivers/spi/built-in.o
 .debug_line    0x0000000000023520     0x12a9 drivers/usb/host/built-in.o
 .debug_line    0x00000000000247c9     0x10bf env/built-in.o
 .debug_line    0x0000000000025888     0x21d6 fs/built-in.o
 .debug_line    0x0000000000027a5e     0xd536 lib/built-in.o
 .debug_line    0x0000000000034f94     0x2981 net/built-in.o
 .debug_line    0x0000000000037915      0x262 test/dm/built-in.o
 .debug_line    0x0000000000037b77       0xf1 arch/arm/lib/lib.a(lib1funcs.o)
 .debug_line    0x0000000000037c68       0x42 arch/arm/lib/lib.a(div0.o)

.debug_info     0x0000000000000000   0x1b5b7b
 .debug_info    0x0000000000000000       0x26 arch/arm/cpu/armv7/start.o
 .debug_info    0x0000000000000026     0x3144 arch/arm/cpu/armv7/built-in.o
 .debug_info    0x000000000000316a     0xb252 arch/arm/lib/built-in.o
 .debug_info    0x000000000000e3bc     0x4da0 arch/arm/mach-at91/built-in.o
 .debug_info    0x000000000001315c     0x2cc6 board/atmel/common/built-in.o
 .debug_info    0x0000000000015e22     0x10f9 board/atmel/rugged_board_a5d2x/built-in.o
 .debug_info    0x0000000000016f1b    0x354f7 cmd/built-in.o
 .debug_info    0x000000000004c412    0x424b1 common/built-in.o
 .debug_info    0x000000000008e8c3     0x37df disk/built-in.o
 .debug_info    0x00000000000920a2    0x57dcd drivers/built-in.o
 .debug_info    0x00000000000e9e6f     0x5954 drivers/gpio/built-in.o
 .debug_info    0x00000000000ef7c3     0x511d drivers/i2c/built-in.o
 .debug_info    0x00000000000f48e0     0x476c drivers/mtd/built-in.o
 .debug_info    0x00000000000f904c     0xa4b1 drivers/mtd/spi/built-in.o
 .debug_info    0x00000000001034fd     0x39db drivers/net/built-in.o
 .debug_info    0x0000000000106ed8     0x306c drivers/net/phy/built-in.o
 .debug_info    0x0000000000109f44     0x4624 drivers/serial/built-in.o
 .debug_info    0x000000000010e568     0x6e92 drivers/spi/built-in.o
 .debug_info    0x00000000001153fa     0xa0e9 drivers/usb/host/built-in.o
 .debug_info    0x000000000011f4e3     0x81df env/built-in.o
 .debug_info    0x00000000001276c2     0xeeee fs/built-in.o
 .debug_info    0x00000000001365b0    0x6a355 lib/built-in.o
 .debug_info    0x00000000001a0905    0x13ae9 net/built-in.o
 .debug_info    0x00000000001b43ee     0x1714 test/dm/built-in.o
 .debug_info    0x00000000001b5b02       0x22 arch/arm/lib/lib.a(lib1funcs.o)
 .debug_info    0x00000000001b5b24       0x57 arch/arm/lib/lib.a(div0.o)

.debug_abbrev   0x0000000000000000    0x36c9f
 .debug_abbrev  0x0000000000000000       0x14 arch/arm/cpu/armv7/start.o
 .debug_abbrev  0x0000000000000014      0x9a5 arch/arm/cpu/armv7/built-in.o
 .debug_abbrev  0x00000000000009b9     0x19a2 arch/arm/lib/built-in.o
 .debug_abbrev  0x000000000000235b      0xd85 arch/arm/mach-at91/built-in.o
 .debug_abbrev  0x00000000000030e0      0x5fe board/atmel/common/built-in.o
 .debug_abbrev  0x00000000000036de      0x297 board/atmel/rugged_board_a5d2x/built-in.o
 .debug_abbrev  0x0000000000003975     0x701b cmd/built-in.o
 .debug_abbrev  0x000000000000a990     0x7d05 common/built-in.o
 .debug_abbrev  0x0000000000012695      0x96c disk/built-in.o
 .debug_abbrev  0x0000000000013001     0xb2e3 drivers/built-in.o
 .debug_abbrev  0x000000000001e2e4      0x9e2 drivers/gpio/built-in.o
 .debug_abbrev  0x000000000001ecc6      0x9ad drivers/i2c/built-in.o
 .debug_abbrev  0x000000000001f673      0x871 drivers/mtd/built-in.o
 .debug_abbrev  0x000000000001fee4     0x121e drivers/mtd/spi/built-in.o
 .debug_abbrev  0x0000000000021102      0x59f drivers/net/built-in.o
 .debug_abbrev  0x00000000000216a1      0x5ab drivers/net/phy/built-in.o
 .debug_abbrev  0x0000000000021c4c      0xab3 drivers/serial/built-in.o
 .debug_abbrev  0x00000000000226ff      0xe54 drivers/spi/built-in.o
 .debug_abbrev  0x0000000000023553     0x1000 drivers/usb/host/built-in.o
 .debug_abbrev  0x0000000000024553     0x14da env/built-in.o
 .debug_abbrev  0x0000000000025a2d     0x1998 fs/built-in.o
 .debug_abbrev  0x00000000000273c5     0xcf26 lib/built-in.o
 .debug_abbrev  0x00000000000342eb     0x265e net/built-in.o
 .debug_abbrev  0x0000000000036949      0x2e6 test/dm/built-in.o
 .debug_abbrev  0x0000000000036c2f       0x12 arch/arm/lib/lib.a(lib1funcs.o)
 .debug_abbrev  0x0000000000036c41       0x5e arch/arm/lib/lib.a(div0.o)

.debug_aranges  0x0000000000000000     0x5c58
 .debug_aranges
                0x0000000000000000       0x20 arch/arm/cpu/armv7/start.o
 .debug_aranges
                0x0000000000000020      0x120 arch/arm/cpu/armv7/built-in.o
 .debug_aranges
                0x0000000000000140      0x310 arch/arm/lib/built-in.o
 .debug_aranges
                0x0000000000000450      0x138 arch/arm/mach-at91/built-in.o
 .debug_aranges
                0x0000000000000588       0x50 board/atmel/common/built-in.o
 .debug_aranges
                0x00000000000005d8       0x48 board/atmel/rugged_board_a5d2x/built-in.o
 .debug_aranges
                0x0000000000000620      0x820 cmd/built-in.o
 .debug_aranges
                0x0000000000000e40      0xf68 common/built-in.o
 .debug_aranges
                0x0000000000001da8       0xd0 disk/built-in.o
 .debug_aranges
                0x0000000000001e78      0xff8 drivers/built-in.o
 .debug_aranges
                0x0000000000002e70      0x220 drivers/gpio/built-in.o
 .debug_aranges
                0x0000000000003090      0x108 drivers/i2c/built-in.o
 .debug_aranges
                0x0000000000003198      0x190 drivers/mtd/built-in.o
 .debug_aranges
                0x0000000000003328      0x1a8 drivers/mtd/spi/built-in.o
 .debug_aranges
                0x00000000000034d0       0xa0 drivers/net/built-in.o
 .debug_aranges
                0x0000000000003570       0xc8 drivers/net/phy/built-in.o
 .debug_aranges
                0x0000000000003638      0x120 drivers/serial/built-in.o
 .debug_aranges
                0x0000000000003758      0x168 drivers/spi/built-in.o
 .debug_aranges
                0x00000000000038c0      0x1c8 drivers/usb/host/built-in.o
 .debug_aranges
                0x0000000000003a88      0x1a8 env/built-in.o
 .debug_aranges
                0x0000000000003c30      0x348 fs/built-in.o
 .debug_aranges
                0x0000000000003f78     0x1830 lib/built-in.o
 .debug_aranges
                0x00000000000057a8      0x410 net/built-in.o
 .debug_aranges
                0x0000000000005bb8       0x38 test/dm/built-in.o
 .debug_aranges
                0x0000000000005bf0       0x48 arch/arm/lib/lib.a(lib1funcs.o)
 .debug_aranges
                0x0000000000005c38       0x20 arch/arm/lib/lib.a(div0.o)

.debug_str      0x0000000000000000    0x1bde9
 .debug_str     0x0000000000000000       0x63 arch/arm/cpu/armv7/start.o
 .debug_str     0x0000000000000063      0xbf1 arch/arm/cpu/armv7/built-in.o
                                       0x2cc1 (size before relaxing)
 .debug_str     0x0000000000000c54     0x23c0 arch/arm/lib/built-in.o
                                       0xa571 (size before relaxing)
 .debug_str     0x0000000000003014      0x3f2 arch/arm/mach-at91/built-in.o
                                       0x405c (size before relaxing)
 .debug_str     0x0000000000003406      0x1ff board/atmel/common/built-in.o
                                       0x295e (size before relaxing)
 .debug_str     0x0000000000003605       0xe9 board/atmel/rugged_board_a5d2x/built-in.o
                                       0x11e8 (size before relaxing)
 .debug_str     0x00000000000036ee     0x410d cmd/built-in.o
                                      0x29797 (size before relaxing)
 .debug_str     0x00000000000077fb     0x48e3 common/built-in.o
                                      0x2eea3 (size before relaxing)
 .debug_str     0x000000000000c0de      0x3e4 disk/built-in.o
                                       0x2239 (size before relaxing)
 .debug_str     0x000000000000c4c2     0x4108 drivers/built-in.o
                                      0x44472 (size before relaxing)
 .debug_str     0x00000000000105ca      0x610 drivers/gpio/built-in.o
                                       0x339d (size before relaxing)
 .debug_str     0x0000000000010bda      0x565 drivers/i2c/built-in.o
                                       0x31d8 (size before relaxing)
 .debug_str     0x000000000001113f      0xa62 drivers/mtd/built-in.o
                                       0x29ea (size before relaxing)
 .debug_str     0x0000000000011ba1      0x826 drivers/mtd/spi/built-in.o
                                       0x763d (size before relaxing)
 .debug_str     0x00000000000123c7      0x4dc drivers/net/built-in.o
                                       0x1db4 (size before relaxing)
 .debug_str     0x00000000000128a3      0x208 drivers/net/phy/built-in.o
                                       0x19dc (size before relaxing)
 .debug_str     0x0000000000012aab      0x3f5 drivers/serial/built-in.o
                                       0x3082 (size before relaxing)
 .debug_str     0x0000000000012ea0      0x593 drivers/spi/built-in.o
                                       0x4a5c (size before relaxing)
 .debug_str     0x0000000000013433      0x7dc drivers/usb/host/built-in.o
                                       0x5b3e (size before relaxing)
 .debug_str     0x0000000000013c0f      0x6da env/built-in.o
                                       0x7326 (size before relaxing)
 .debug_str     0x00000000000142e9     0x102c fs/built-in.o
                                       0x908c (size before relaxing)
 .debug_str     0x0000000000015315     0x56ff lib/built-in.o
                                      0x4705e (size before relaxing)
 .debug_str     0x000000000001aa14     0x1328 net/built-in.o
                                       0xf473 (size before relaxing)
 .debug_str     0x000000000001bd3c       0x79 test/dm/built-in.o
                                       0x14d4 (size before relaxing)
 .debug_str     0x000000000001bdb5       0x19 arch/arm/lib/lib.a(lib1funcs.o)
                                         0x61 (size before relaxing)
 .debug_str     0x000000000001bdce       0x1b arch/arm/lib/lib.a(div0.o)
                                        0x1b3 (size before relaxing)

.debug_frame    0x0000000000000000    0x1094c
 .debug_frame   0x0000000000000000      0x1e8 arch/arm/cpu/armv7/built-in.o
 .debug_frame   0x00000000000001e8      0x444 arch/arm/lib/built-in.o
 .debug_frame   0x000000000000062c      0x258 arch/arm/mach-at91/built-in.o
 .debug_frame   0x0000000000000884       0x8c board/atmel/common/built-in.o
 .debug_frame   0x0000000000000910       0xa4 board/atmel/rugged_board_a5d2x/built-in.o
 .debug_frame   0x00000000000009b4     0x16a0 cmd/built-in.o
 .debug_frame   0x0000000000002054     0x3074 common/built-in.o
 .debug_frame   0x00000000000050c8      0x2e8 disk/built-in.o
 .debug_frame   0x00000000000053b0     0x29a8 drivers/built-in.o
 .debug_frame   0x0000000000007d58      0x70c drivers/gpio/built-in.o
 .debug_frame   0x0000000000008464      0x38c drivers/i2c/built-in.o
 .debug_frame   0x00000000000087f0      0x5e4 drivers/mtd/built-in.o
 .debug_frame   0x0000000000008dd4      0x51c drivers/mtd/spi/built-in.o
 .debug_frame   0x00000000000092f0      0x1e0 drivers/net/built-in.o
 .debug_frame   0x00000000000094d0      0x278 drivers/net/phy/built-in.o
 .debug_frame   0x0000000000009748      0x2ac drivers/serial/built-in.o
 .debug_frame   0x00000000000099f4      0x3f4 drivers/spi/built-in.o
 .debug_frame   0x0000000000009de8      0x540 drivers/usb/host/built-in.o
 .debug_frame   0x000000000000a328      0x49c env/built-in.o
 .debug_frame   0x000000000000a7c4      0xb94 fs/built-in.o
 .debug_frame   0x000000000000b358     0x4868 lib/built-in.o
 .debug_frame   0x000000000000fbc0      0xcf0 net/built-in.o
 .debug_frame   0x00000000000108b0       0x7c test/dm/built-in.o
 .debug_frame   0x000000000001092c       0x20 arch/arm/lib/lib.a(div0.o)

.debug_loc      0x0000000000000000    0xa1207
 .debug_loc     0x0000000000000000      0x41e arch/arm/cpu/armv7/built-in.o
 .debug_loc     0x000000000000041e      0xd3c arch/arm/lib/built-in.o
 .debug_loc     0x000000000000115a      0x94c arch/arm/mach-at91/built-in.o
 .debug_loc     0x0000000000001aa6      0x11e board/atmel/common/built-in.o
 .debug_loc     0x0000000000001bc4     0xd63b cmd/built-in.o
 .debug_loc     0x000000000000f1ff    0x15b02 common/built-in.o
 .debug_loc     0x0000000000024d01     0x1277 disk/built-in.o
 .debug_loc     0x0000000000025f78    0x10683 drivers/built-in.o
 .debug_loc     0x00000000000365fb     0x2578 drivers/gpio/built-in.o
 .debug_loc     0x0000000000038b73     0x1f08 drivers/i2c/built-in.o
 .debug_loc     0x000000000003aa7b     0x2588 drivers/mtd/built-in.o
 .debug_loc     0x000000000003d003     0x2c27 drivers/mtd/spi/built-in.o
 .debug_loc     0x000000000003fc2a     0x171f drivers/net/built-in.o
 .debug_loc     0x0000000000041349     0x1e17 drivers/net/phy/built-in.o
 .debug_loc     0x0000000000043160      0xf11 drivers/serial/built-in.o
 .debug_loc     0x0000000000044071     0x2125 drivers/spi/built-in.o
 .debug_loc     0x0000000000046196     0x3754 drivers/usb/host/built-in.o
 .debug_loc     0x00000000000498ea     0x160d env/built-in.o
 .debug_loc     0x000000000004aef7     0x70a8 fs/built-in.o
 .debug_loc     0x0000000000051f9f    0x49ddf lib/built-in.o
 .debug_loc     0x000000000009bd7e     0x51ff net/built-in.o
 .debug_loc     0x00000000000a0f7d      0x28a test/dm/built-in.o

.debug_ranges   0x0000000000000000     0xc640
 .debug_ranges  0x0000000000000000      0x108 arch/arm/cpu/armv7/built-in.o
 .debug_ranges  0x0000000000000108      0x2e8 arch/arm/lib/built-in.o
 .debug_ranges  0x00000000000003f0      0x180 arch/arm/mach-at91/built-in.o
 .debug_ranges  0x0000000000000570       0x30 board/atmel/common/built-in.o
 .debug_ranges  0x00000000000005a0       0x70 board/atmel/rugged_board_a5d2x/built-in.o
 .debug_ranges  0x0000000000000610     0x1280 cmd/built-in.o
 .debug_ranges  0x0000000000001890     0x20a0 common/built-in.o
 .debug_ranges  0x0000000000003930      0x218 disk/built-in.o
 .debug_ranges  0x0000000000003b48     0x1fe8 drivers/built-in.o
 .debug_ranges  0x0000000000005b30      0x2d8 drivers/gpio/built-in.o
 .debug_ranges  0x0000000000005e08      0x368 drivers/i2c/built-in.o
 .debug_ranges  0x0000000000006170      0x228 drivers/mtd/built-in.o
 .debug_ranges  0x0000000000006398      0x538 drivers/mtd/spi/built-in.o
 .debug_ranges  0x00000000000068d0      0x368 drivers/net/built-in.o
 .debug_ranges  0x0000000000006c38      0x3c0 drivers/net/phy/built-in.o
 .debug_ranges  0x0000000000006ff8      0x348 drivers/serial/built-in.o
 .debug_ranges  0x0000000000007340      0x340 drivers/spi/built-in.o
 .debug_ranges  0x0000000000007680      0x620 drivers/usb/host/built-in.o
 .debug_ranges  0x0000000000007ca0      0x2d8 env/built-in.o
 .debug_ranges  0x0000000000007f78      0xb08 fs/built-in.o
 .debug_ranges  0x0000000000008a80     0x3160 lib/built-in.o
 .debug_ranges  0x000000000000bbe0      0x9e8 net/built-in.o
 .debug_ranges  0x000000000000c5c8       0x28 test/dm/built-in.o
 .debug_ranges  0x000000000000c5f0       0x40 arch/arm/lib/lib.a(lib1funcs.o)
 .debug_ranges  0x000000000000c630       0x10 arch/arm/lib/lib.a(div0.o)
